(dp0
Vlu1481201025
p1
Vhttp://www.bnpparibas-ip.fr/investisseur-prive-particulier/fundsheet/actions-europeennes/bnp-paribas-easy-equity-low-vol-europe-ucits-etf-c-lu1377381717
p2
sVlu0012182712
p3
Vhttp://www.bnpparibas-ip.fr/investisseur-prive-particulier/fundsheet/autres-fonds-taux-pays-developpes/parvest-bond-jpy-classic-c-lu0012182712
p4
sVfr0010714238
p5
Vhttp://www.bnpparibas-ip.fr/investisseur-prive-particulier/fundsheet/actions-internationales/topix-theam-easy-ucits-etf-eur-c-fr0010713610
p6
sVlu0325598323
p7
Vhttp://www.bnpparibas-ip.fr/investisseur-prive-particulier/fundsheet/obligations-internationales/parvest-enhanced-cash-6-months-classic-c-lu0325598166
p8
sVfr0010722272
p9
Vhttp://www.bnpparibas-ip.fr/investisseur-prive-particulier/fundsheet/actions-internationales/theam-euro-long-dividends-a-eur-c-fr0010722272
p10
sVlu0212187404
p11
Vhttp://www.bnpparibas-ip.fr/investisseur-prive-particulier/fundsheet/actions-europeennes/parvest-sustainable-equity-europe-classic-c-lu0212189012
p12
sVfr0010997825
p13
Vhttp://www.bnpparibas-ip.fr/investisseur-prive-particulier/fundsheet/diversifie-monde/fundquest-optimal-selection-classic-c-fr0010997825
p14
sVlu0172351255
p15
Vhttp://www.bnpparibas-ip.fr/investisseur-prive-particulier/fundsheet/obligations-internationales/bnp-paribas-l1-bond-euro-premium-classic-c-lu0172350877
p16
sVlu0531558558
p17
Vhttp://www.bnpparibas-ip.fr/investisseur-prive-particulier/fundsheet/obligations-internationales/bnp-paribas-l1-bond-europe-plus-classic-c-lu0010000809
p18
sVlu0823416333
p19
Vhttp://www.bnpparibas-ip.fr/investisseur-prive-particulier/fundsheet/actions-internationales/parvest-equity-world-finance-classic-c-lu0823415871
p20
sVfr0012098499
p21
Vhttp://www.bnpparibas-ip.fr/investisseur-prive-particulier/fundsheet/actions-emergentes/cardif-bnpp-ip-equity-frontier-markets-classic-c-fr0012098499
p22
sVlu0283511433
p23
Vhttp://www.bnpparibas-ip.fr/investisseur-prive-particulier/fundsheet/immobilier-europeen/parvest-real-estate-securities-europe-classic-c-lu0283511359
p24
sVfr0011362102
p25
Vhttp://www.bnpparibas-ip.fr/investisseur-prive-particulier/fundsheet/marche-monetaire-usd/bnp-paribas-deposit-usd-classic-c-fr0011362102
p26
sVlu0203243844
p27
Vhttp://www.bnpparibas-ip.fr/investisseur-prive-particulier/fundsheet/matieres-premieres/s-p-gsci-energy-metals-capped-component-35-20-theam-easy-ucits-etf-a-usd-c-lu0203243844
p28
sVfr0007016449
p29
Vhttp://www.bnpparibas-ip.fr/investisseur-prive-particulier/fundsheet/actions-internationales/cpi-performance-classique-c-fr0007016449
p30
sVlu0823443733
p31
Vhttp://www.bnpparibas-ip.fr/investisseur-prive-particulier/fundsheet/immobilier-monde/parvest-real-estate-securities-pacific-classic-c-lu0823443220
p32
sVfr0011355528
p33
Vhttp://www.bnpparibas-ip.fr/investisseur-prive-particulier/fundsheet/actions-americaines/bnp-paribas-indice-amerique-du-nord-classic-c-fr0011355528
p34
sVlu1165136174
p35
Vhttp://www.bnpparibas-ip.fr/investisseur-prive-particulier/fundsheet/actions-internationales/parvest-human-development-classic-c-lu1165136174
p36
sVlu0270761140
p37
Vhttp://www.bnpparibas-ip.fr/investisseur-prive-particulier/fundsheet/actions-europeennes/bnp-paribas-l1-equity-netherlands-classic-c-lu0043962355
p38
sVlu0194437363
p39
Vhttp://www.bnpparibas-ip.fr/investisseur-prive-particulier/fundsheet/obligations-americaines/parvest-bond-usa-high-yield-classic-c-lu0111549480
p40
sVlu0823438816
p41
Vhttp://www.bnpparibas-ip.fr/investisseur-prive-particulier/fundsheet/actions-internationales/parvest-green-tigers-classic-c-lu0823437925
p42
sVfr0007085436
p43
Vhttp://www.bnpparibas-ip.fr/investisseur-prive-particulier/fundsheet/portefeuilles-diversifies-europe/camgestion-club-patrimoine-classic-c-fr0007085436
p44
sVlu0823379382
p45
Vhttp://www.bnpparibas-ip.fr/investisseur-prive-particulier/fundsheet/produits-de-taux-emergents/parvest-bond-asia-ex-japan-classic-eur-c-lu0823378905
p46
sVlu0823410997
p47
Vhttp://www.bnpparibas-ip.fr/investisseur-prive-particulier/fundsheet/actions-americaines/parvest-equity-usa-small-cap-classic-eur-c-lu0823410724
p48
sVlu1165137578
p49
Vhttp://www.bnpparibas-ip.fr/investisseur-prive-particulier/fundsheet/actions-internationales/parvest-smart-food-classic-c-lu1165137149
p50
sVlu0086913042
p51
Vhttp://www.bnpparibas-ip.fr/investisseur-prive-particulier/fundsheet/obligations-convertibles-europeennes/parvest-convertible-bond-europe-classic-c-lu0086913042
p52
sVlu0212177199
p53
Vhttp://www.bnpparibas-ip.fr/investisseur-prive-particulier/fundsheet/obligations-europeennes/parvest-bond-euro-short-term-classic-c-lu0212175227
p54
sVlu1104108326
p55
Vhttp://www.bnpparibas-ip.fr/investisseur-prive-particulier/fundsheet/obligations-internationales/parvest-bond-world-income-classic-c-lu1104108243
p56
sVlu0283511359
p57
g24
sVlu0823381875
p58
Vhttp://www.bnpparibas-ip.fr/investisseur-prive-particulier/fundsheet/obligations-europeennes/parvest-bond-euro-long-term-classic-c-lu0823381875
p59
sVfr0010478727
p60
Vhttp://www.bnpparibas-ip.fr/investisseur-prive-particulier/fundsheet/obligations-internationales/bnp-paribas-dynamique-6-mois-classic-c-fr0007035365
p61
sVfr0012538122
p62
Vhttp://www.bnpparibas-ip.fr/investisseur-prive-particulier/fundsheet/actions-europeennes/bnp-paribas-strategie-privee-actions-europe-classic-c-fr0012538122
p63
sVlu0930019665
p64
Vhttp://www.bnpparibas-ip.fr/investisseur-prive-particulier/fundsheet/produits-structures/bnp-paribas-plan-easy-future-2026-classic-c-lu0930019582
p65
sVfr0007045919
p66
Vhttp://www.bnpparibas-ip.fr/investisseur-prive-particulier/fundsheet/diversifie-monde/gestion-moderate-classic-c-fr0007045919
p67
sVlu0111483102
p68
Vhttp://www.bnpparibas-ip.fr/investisseur-prive-particulier/fundsheet/autres-fonds-actions-pays-developpes/parvest-equity-australia-classic-eur-c-lu0251810007
p69
sVlu0823390355
p70
Vhttp://www.bnpparibas-ip.fr/investisseur-prive-particulier/fundsheet/produits-de-taux-emergents/parvest-bond-best-selection-world-emerging-classic-c-lu0823389852
p71
sVfr0010146837
p72
Vhttp://www.bnpparibas-ip.fr/investisseur-prive-particulier/fundsheet/diversifie-monde/bnp-paribas-retraite-responsable-5-p-c-fr0010146837
p73
sVlu0265293521
p74
Vhttp://www.bnpparibas-ip.fr/investisseur-prive-particulier/fundsheet/actions-emergentes/parvest-equity-turkey-classic-c-lu0265293521
p75
sVfr0007453477
p76
Vhttp://www.bnpparibas-ip.fr/investisseur-prive-particulier/fundsheet/diversifie-monde/rentabilite-mobiliere-classique-c-fr0007453477
p77
sVlu0012182126
p78
Vhttp://www.bnpparibas-ip.fr/investisseur-prive-particulier/fundsheet/obligations-americaines/parvest-bond-usd-short-duration-classic-c-lu0012182399
p79
sVfr0010948745
p80
Vhttp://www.bnpparibas-ip.fr/investisseur-prive-particulier/fundsheet/produits-structures/everglades-pea-classic-c-fr0010948745
p81
sVfr0010093872
p82
Vhttp://www.bnpparibas-ip.fr/investisseur-prive-particulier/fundsheet/obligations-europeennes/bnp-paribas-obli-revenus-classic-h-fr0010093872
p83
sVlu0925123043
p84
Vhttp://www.bnpparibas-ip.fr/investisseur-prive-particulier/fundsheet/actions-internationales/parvest-equity-world-emerging-low-volatility-classic-eur-c-lu0925123043
p85
sVlu0406802339
p86
Vhttp://www.bnpparibas-ip.fr/investisseur-prive-particulier/fundsheet/actions-internationales/parvest-climate-impact-classic-c-lu0406802339
p87
sVlu0823380125
p88
g46
sVlu1056593772
p89
Vhttp://www.bnpparibas-ip.fr/investisseur-prive-particulier/fundsheet/actions-internationales/bnp-paribas-l1-equity-world-guru-classic-eur-c-lu1056593699
p90
sVlu0325599644
p91
g8
sVfr0011653781
p92
Vhttp://www.bnpparibas-ip.fr/investisseur-prive-particulier/fundsheet/produits-structures/isis-europe-smallcap-2020-classic-c-fr0011653781
p93
sVlu0111482989
p94
g69
sVlu0251280102
p95
Vhttp://www.bnpparibas-ip.fr/investisseur-prive-particulier/fundsheet/produits-de-taux-emergents/bnp-paribas-l1-bond-world-emerging-local-classic-c-lu0907251499
p96
sVlu0823430672
p97
Vhttp://www.bnpparibas-ip.fr/investisseur-prive-particulier/fundsheet/actions-emergentes/parvest-equity-indonesia-classic-eur-c-lu0823429823
p98
sVlu1104113599
p99
Vhttp://www.bnpparibas-ip.fr/investisseur-prive-particulier/fundsheet/actions-emergentes/parvest-equity-world-emerging-small-cap-classic-c-lu1104113243
p100
sVlu1104114993
p101
Vhttp://www.bnpparibas-ip.fr/investisseur-prive-particulier/fundsheet/obligations-internationales/parvest-bond-absolute-return-v700-classic-c-lu1104114647
p102
sVlu1022403833
p103
Vhttp://www.bnpparibas-ip.fr/investisseur-prive-particulier/fundsheet/obligations-europeennes/parvest-covered-bond-euro-classic-c-lu1022403676
p104
sVfr0011585553
p105
Vhttp://www.bnpparibas-ip.fr/investisseur-prive-particulier/fundsheet/obligations-internationales/bnp-paribas-obliselect-global-high-yield-2019-classic-c-fr0011585546
p106
sVfr0012649283
p107
Vhttp://www.bnpparibas-ip.fr/investisseur-prive-particulier/fundsheet/produits-structures/athena-semi-airbag-aout-2023-classic-c-fr0012649283
p108
sVlu0823443220
p109
g32
sVfr0011011261
p110
Vhttp://www.bnpparibas-ip.fr/investisseur-prive-particulier/fundsheet/actions-europeennes/bnp-paribas-actions-pme-classic-c-fr0011693100
p111
sVlu1056593699
p112
g90
sVlu0011928255
p113
Vhttp://www.bnpparibas-ip.fr/investisseur-prive-particulier/fundsheet/obligations-internationales/bnp-paribas-l1-bond-world-plus-classic-c-lu0011928255
p114
sVfr0011046739
p115
Vhttp://www.bnpparibas-ip.fr/investisseur-prive-particulier/fundsheet/obligations-europeennes/bnp-paribas-obli-responsable-classic-c-fr0010076893
p116
sVlu0823424352
p117
Vhttp://www.bnpparibas-ip.fr/investisseur-prive-particulier/fundsheet/actions-internationales/parvest-equity-world-telecom-classic-c-lu0823422810
p118
sVlu0423950053
p119
Vhttp://www.bnpparibas-ip.fr/investisseur-prive-particulier/fundsheet/marche-monetaire-eur/bnp-paribas-insticash-money-3m-eur-classic-c-lu0423950210
p120
sVlu0956005226
p121
Vhttp://www.bnpparibas-ip.fr/investisseur-prive-particulier/fundsheet/actions-internationales/parvest-equity-best-selection-world-classic-c-lu0956005226
p122
sVlu1165136687
p123
g36
sVlu1165137222
p124
g50
sVfr0012558815
p125
Vhttp://www.bnpparibas-ip.fr/investisseur-prive-particulier/fundsheet/actions-internationales/bnp-paribas-actions-emergentes-classic-c-fr0012558815
p126
sVfr0011034586
p127
Vhttp://www.bnpparibas-ip.fr/investisseur-prive-particulier/fundsheet/produits-structures/bnp-paribas-gestion-active-classic-c-fr0011034586
p128
sVlu1049888735
p129
Vhttp://www.bnpparibas-ip.fr/investisseur-prive-particulier/fundsheet/actions-americaines/theam-quant-equity-us-guru-c-eur-c-lu1049888735
p130
sVfr0000174526
p131
Vhttp://www.bnpparibas-ip.fr/investisseur-prive-particulier/fundsheet/diversifie-monde/bnp-paribas-retraite-responsable-75-p-c-fr0010146894
p132
sVfr0011683655
p133
Vhttp://www.bnpparibas-ip.fr/investisseur-prive-particulier/fundsheet/produits-structures/bnp-paribas-thique-europe-2018-pea-classic-c-fr0011683655
p134
sVfr0010894824
p135
Vhttp://www.bnpparibas-ip.fr/investisseur-prive-particulier/fundsheet/obligations-europeennes/bnp-paribas-obli-pays-garantie-2018-classic-c-fr0010894824
p136
sVlu0111550736
p137
g40
sVfr0010670661
p138
Vhttp://www.bnpparibas-ip.fr/investisseur-prive-particulier/fundsheet/obligations-europeennes/cortal-consors-open-court-terme-classic-c-fr0010670653
p139
sVfr0010156216
p140
Vhttp://www.bnpparibas-ip.fr/investisseur-prive-particulier/fundsheet/immobilier-monde/bnp-paribas-immobilier-responsable-classic-c-fr0010156216
p141
sVlu0154361405
p142
Vhttp://www.bnpparibas-ip.fr/investisseur-prive-particulier/fundsheet/produits-structures/parvest-step-90-euro-classic-c-lu0154361405
p143
sVlu1235110779
p144
Vhttp://www.bnpparibas-ip.fr/investisseur-prive-particulier/fundsheet/actions-emergentes/theam-quant-equity-asia-guru-c-c-lu1235110779
p145
sVlu0823417901
p146
Vhttp://www.bnpparibas-ip.fr/investisseur-prive-particulier/fundsheet/actions-internationales/parvest-equity-world-low-volatility-classic-c-lu0823417810
p147
sVlu0823391676
p148
Vhttp://www.bnpparibas-ip.fr/investisseur-prive-particulier/fundsheet/obligations-internationales/parvest-bond-world-classic-c-lu0823391676
p149
sVfr0011594134
p150
Vhttp://www.bnpparibas-ip.fr/investisseur-prive-particulier/fundsheet/diversifie-monde/bnp-paribas-floreal-70-classic-c-fr0011594134
p151
sVlu0823432611
p152
Vhttp://www.bnpparibas-ip.fr/investisseur-prive-particulier/fundsheet/actions-emergentes/parvest-equity-russia-classic-c-lu0823431720
p153
sVfr0010077354
p154
Vhttp://www.bnpparibas-ip.fr/investisseur-prive-particulier/fundsheet/obligations-europeennes/bnp-paribas-obli-inflation-classic-c-fr0010077354
p155
sVfr0010112615
p156
Vhttp://www.bnpparibas-ip.fr/investisseur-prive-particulier/fundsheet/obligations-europeennes/bnp-paribas-obli-moyen-terme-classic-c-fr0010112615
p157
sVfr0011617737
p158
Vhttp://www.bnpparibas-ip.fr/investisseur-prive-particulier/fundsheet/obligations-europeennes/bnp-paribas-advanced-treasury-classic-c-fr0011617729
p159
sVlu1291107594
p160
Vhttp://www.bnpparibas-ip.fr/investisseur-prive-particulier/fundsheet/actions-europeennes/bnp-paribas-easy-msci-uk-ex-controversial-weapons-track-classic-c-lu1291107248
p161
sVlu1104113672
p162
g100
sVlu0282880003
p163
Vhttp://www.bnpparibas-ip.fr/investisseur-prive-particulier/fundsheet/actions-emergentes/parvest-equity-russia-opportunities-classic-eur-c-lu0282880003
p164
sVlu0823412266
p165
Vhttp://www.bnpparibas-ip.fr/investisseur-prive-particulier/fundsheet/actions-internationales/parvest-equity-world-consumer-durables-classic-c-lu0823411706
p166
sVlu0159092427
p167
Vhttp://www.bnpparibas-ip.fr/investisseur-prive-particulier/fundsheet/diversifie-monde/bnp-paribas-l1-diversified-world-growth-classic-c-lu0132152439
p168
sVlu0823422810
p169
g118
sVlu1104108839
p170
g56
sVfr0010146787
p171
Vhttp://www.bnpparibas-ip.fr/investisseur-prive-particulier/fundsheet/diversifie-monde/bnp-paribas-retraite-responsable-2019-2021-p-c-fr0010146787
p172
sVlu0107069717
p173
g4
sVlu0823389183
p174
Vhttp://www.bnpparibas-ip.fr/investisseur-prive-particulier/fundsheet/obligations-internationales/parvest-bond-world-high-yield-classic-c-lu0823388615
p175
sVbe0146933750
p176
Vhttp://www.bnpparibas-ip.fr/investisseur-prive-particulier/fundsheet/diversifie-monde/bnp-paribas-b-strategy-global-conservative-classic-d-be0146933750
p177
sVlu1163234195
p178
Vhttp://www.bnpparibas-ip.fr/investisseur-prive-particulier/fundsheet/actions-emergentes/bnp-paribas-flexi-i-csi-300-index-classic-eur-c-lu1163234278
p179
sVfr0011550672
p180
Vhttp://www.bnpparibas-ip.fr/investisseur-prive-particulier/fundsheet/actions-europeennes/bnp-paribas-easy-stoxx-europe-600-ucits-etf-classique-c-fr0011550193
p181
sVlu0823425839
p182
Vhttp://www.bnpparibas-ip.fr/investisseur-prive-particulier/fundsheet/actions-emergentes/parvest-equity-china-classic-eur-c-lu0823425839
p183
sVlu0111451596
p184
Vhttp://www.bnpparibas-ip.fr/investisseur-prive-particulier/fundsheet/actions-europeennes/parvest-equity-europe-mid-cap-classic-c-lu0066794719
p185
sVlu0848152095
p186
Vhttp://www.bnpparibas-ip.fr/investisseur-prive-particulier/fundsheet/diversifie-monde/bnp-paribas-quam-fund-medium-vol-classic-c-lu0236673397
p187
sVlu0159056620
p188
g18
sVlu1270632737
p189
Vhttp://www.bnpparibas-ip.fr/investisseur-prive-particulier/fundsheet/rendement-absolu/parvest-cross-asset-absolute-return-classic-c-lu1270631846
p190
sVfr0011670082
p191
Vhttp://www.bnpparibas-ip.fr/investisseur-prive-particulier/fundsheet/actions-internationales/theam-quant-equity-europe-core-a-eur-c-fr0011670082
p192
sVlu0406802685
p193
g87
sVlu1056594580
p194
Vhttp://www.bnpparibas-ip.fr/investisseur-prive-particulier/fundsheet/diversifie-monde/bnp-paribas-l1-multi-asset-income-classic-c-lu1056594234
p195
sVlu0283407293
p196
g24
sVfr0010302398
p197
Vhttp://www.bnpparibas-ip.fr/investisseur-prive-particulier/fundsheet/actions-europeennes/bnp-paribas-actions-europe-responsable-classic-c-fr0010302398
p198
sVlu0283417250
p199
Vhttp://www.bnpparibas-ip.fr/investisseur-prive-particulier/fundsheet/actions-emergentes/parvest-equity-latin-america-classic-eur-c-lu0283417250
p200
sVfr0010732701
p201
Vhttp://www.bnpparibas-ip.fr/investisseur-prive-particulier/fundsheet/portefeuilles-diversifies-europe/camgestion-europe-equilibre-classique-c-fr0010732701
p202
sVlu0823394852
p203
Vhttp://www.bnpparibas-ip.fr/investisseur-prive-particulier/fundsheet/obligations-convertibles-internationales/parvest-convertible-bond-world-classic-rh-eur-c-lu0823394852
p204
sVlu1163234278
p205
g179
sVlu0823400501
p206
Vhttp://www.bnpparibas-ip.fr/investisseur-prive-particulier/fundsheet/actions-europeennes/parvest-equity-best-selection-europe-classic-c-lu0823399810
p207
sVlu0251810007
p208
g69
sVfr0010633818
p209
Vhttp://www.bnpparibas-ip.fr/investisseur-prive-particulier/fundsheet/obligations-europeennes/camgestion-capi-oblig-classique-c-fr0010633818
p210
sVfr0010106831
p211
Vhttp://www.bnpparibas-ip.fr/investisseur-prive-particulier/fundsheet/actions-europeennes/bnp-paribas-indice-france-classic-c-fr0010106831
p212
sVfr0011296383
p213
Vhttp://www.bnpparibas-ip.fr/investisseur-prive-particulier/fundsheet/obligations-internationales/bnp-paribas-obliselect-global-high-yield-2017-classic-c-fr0011296383
p214
sVlu1049891010
p215
Vhttp://www.bnpparibas-ip.fr/investisseur-prive-particulier/fundsheet/rendement-absolu/theam-quant-equity-guru-long-short-c-c-lu1049891010
p216
sVfr0010116343
p217
Vhttp://www.bnpparibas-ip.fr/investisseur-prive-particulier/fundsheet/marche-monetaire-eur/bnp-paribas-tresorerie-classic-c-fr0010116343
p218
sVlu1254145326
p219
Vhttp://www.bnpparibas-ip.fr/investisseur-prive-particulier/fundsheet/actions-americaines/bnp-paribas-l1-equity-usa-core-classic-eur-c-lu0531774767
p220
sVlu0930018931
p221
Vhttp://www.bnpparibas-ip.fr/investisseur-prive-particulier/fundsheet/produits-structures/bnp-paribas-plan-easy-future-2021-classic-c-lu0930018931
p222
sVlu0111491626
p223
Vhttp://www.bnpparibas-ip.fr/investisseur-prive-particulier/fundsheet/actions-europeennes/parvest-sustainable-equity-high-dividend-europe-classic-c-lu0111491469
p224
sVlu1377382012
p225
Vhttp://www.bnpparibas-ip.fr/investisseur-prive-particulier/fundsheet/actions-europeennes/bnp-paribas-easy-equity-momentum-europe-ucits-etf-c-lu1377382012
p226
sVlu1291092119
p227
Vhttp://www.bnpparibas-ip.fr/investisseur-prive-particulier/fundsheet/obligations-internationales/bnp-paribas-easy-jpm-embi-global-diversified-composite-track-privilege-h-eur-c-lu1291092119
p228
sVfr0007006929
p229
Vhttp://www.bnpparibas-ip.fr/investisseur-prive-particulier/fundsheet/actions-europeennes/camgestion-active-100-classique-c-fr0007006929
p230
sVfr0011088475
p231
Vhttp://www.bnpparibas-ip.fr/investisseur-prive-particulier/fundsheet/obligations-internationales/bnp-paribas-double-garantie-decembre-2018-classic-c-fr0011088475
p232
sVlu0823415012
p233
Vhttp://www.bnpparibas-ip.fr/investisseur-prive-particulier/fundsheet/actions-internationales/parvest-equity-world-energy-classic-c-lu0823414635
p234
sVlu0225846186
p235
Vhttp://www.bnpparibas-ip.fr/investisseur-prive-particulier/fundsheet/actions-emergentes/parvest-equity-south-korea-classic-eur-c-lu0282880698
p236
sVfr0012538098
p237
Vhttp://www.bnpparibas-ip.fr/investisseur-prive-particulier/fundsheet/actions-europeennes/bnp-paribas-strategie-privee-isr-actions-europe-classic-c-fr0012538098
p238
sVfr0012716710
p239
Vhttp://www.bnpparibas-ip.fr/investisseur-prive-particulier/fundsheet/produits-structures/eco-developpement-protege-90-classic-c-fr0012716710
p240
sVlu1104106973
p241
Vhttp://www.bnpparibas-ip.fr/investisseur-prive-particulier/fundsheet/produits-de-taux-emergents/parvest-bond-rmb-classic-c-lu1104106973
p242
sVlu0823386320
p243
Vhttp://www.bnpparibas-ip.fr/investisseur-prive-particulier/fundsheet/produits-de-taux-emergents/parvest-bond-world-emerging-local-classic-eur-c-lu0823385272
p244
sVlu0925122821
p245
g85
sVfr0007068085
p246
Vhttp://www.bnpparibas-ip.fr/investisseur-prive-particulier/fundsheet/actions-europeennes/bnp-paribas-easy-stoxx-europe-600-oil-gas-ucits-etf-classique-c-fr0007068085
p247
sVlu0662594398
p248
Vhttp://www.bnpparibas-ip.fr/investisseur-prive-particulier/fundsheet/produits-de-taux-emergents/parvest-bond-world-emerging-classic-eur-c-lu0282274348
p249
sVlu0823407779
p250
Vhttp://www.bnpparibas-ip.fr/investisseur-prive-particulier/fundsheet/actions-americaines/parvest-equity-high-dividend-usa-classic-eur-c-lu0823407779
p251
sVlu1049888578
p252
g130
sVlu0265267954
p253
Vhttp://www.bnpparibas-ip.fr/investisseur-prive-particulier/fundsheet/actions-emergentes/parvest-equity-brazil-classic-eur-c-lu0281906387
p254
sVlu0347712191
p255
Vhttp://www.bnpparibas-ip.fr/investisseur-prive-particulier/fundsheet/actions-internationales/parvest-global-environment-classic-c-lu0347711466
p256
sVlu0249333690
p257
Vhttp://www.bnpparibas-ip.fr/investisseur-prive-particulier/fundsheet/obligations-internationales/parvest-bond-world-inflation-linked-classic-c-lu0249332619
p258
sVlu0325598166
p259
g8
sVlu0823385603
p260
g244
sVlu0823450787
p261
Vhttp://www.bnpparibas-ip.fr/investisseur-prive-particulier/fundsheet/matieres-premieres/parvest-commodities-classic-eur-c-lu0823449185
p262
sVfr0012443158
p263
Vhttp://www.bnpparibas-ip.fr/investisseur-prive-particulier/fundsheet/diversifie-monde/bnp-paribas-linus-flexi-world-a-c-fr0012443158
p264
sVlu0249332619
p265
g258
sVlu0925122235
p266
Vhttp://www.bnpparibas-ip.fr/investisseur-prive-particulier/fundsheet/autres-fonds-actions-pays-developpes/parvest-equity-japan-small-cap-classic-eur-c-lu0251807987
p267
sVlu1270632067
p268
g190
sVfr0013127149
p269
Vhttp://www.bnpparibas-ip.fr/investisseur-prive-particulier/fundsheet/portefeuilles-diversifies-europe/bnpp-european-multi-asset-moderate-a-c-fr0013127149
p270
sVlu1022398496
p271
Vhttp://www.bnpparibas-ip.fr/investisseur-prive-particulier/fundsheet/actions-internationales/parvest-equity-high-dividend-world-classic-c-lu1022398496
p272
sVlu1022405028
p273
Vhttp://www.bnpparibas-ip.fr/investisseur-prive-particulier/fundsheet/obligations-internationales/parvest-flexible-bond-euro-classic-c-lu1022404724
p274
sVlu0823423388
p275
g118
sVfr0010076893
p276
g116
sVfr0013057130
p277
Vhttp://www.bnpparibas-ip.fr/investisseur-prive-particulier/fundsheet/diversifie-monde/camgestion-g-n-ration-2031-35-classic-c-fr0013057130
p278
sVlu0925123803
p279
g102
sVlu0823409635
p280
Vhttp://www.bnpparibas-ip.fr/investisseur-prive-particulier/fundsheet/actions-emergentes/parvest-equity-asia-pacific-ex-japan-classic-eur-c-lu0823409718
p281
sVlu1022404138
p282
g104
sVfr0011314293
p283
Vhttp://www.bnpparibas-ip.fr/investisseur-prive-particulier/fundsheet/obligations-europeennes/bnp-paribas-obliselect-nordic-hy-2019-hedged-classic-c-fr0011314335
p284
sVlu0823433858
p285
g75
sVlu0823399067
p286
Vhttp://www.bnpparibas-ip.fr/investisseur-prive-particulier/fundsheet/actions-europeennes/parvest-equity-best-selection-europe-ex-uk-classic-c-lu0823398416
p287
sVfr0007471198
p288
Vhttp://www.bnpparibas-ip.fr/investisseur-prive-particulier/fundsheet/diversifie-monde/actions-monde-bnpp-ip-classique-h-fr0007471198
p289
sVlu0823421689
p290
Vhttp://www.bnpparibas-ip.fr/investisseur-prive-particulier/fundsheet/actions-internationales/parvest-equity-world-technology-classic-c-lu0823421689
p291
sVlu0083137926
p292
Vhttp://www.bnpparibas-ip.fr/investisseur-prive-particulier/fundsheet/marche-monetaire-eur/parvest-money-market-euro-classic-c-lu0083138064
p293
sVlu0823404081
p294
Vhttp://www.bnpparibas-ip.fr/investisseur-prive-particulier/fundsheet/actions-emergentes/parvest-equity-europe-emerging-classic-c-lu0823403356
p295
sVlu1104425308
p296
Vhttp://www.bnpparibas-ip.fr/investisseur-prive-particulier/fundsheet/actions-europeennes/parvest-equity-europe-growth-classic-c-lu0823404248
p297
sVlu1291108485
p298
Vhttp://www.bnpparibas-ip.fr/investisseur-prive-particulier/fundsheet/actions-internationales/bnp-paribas-easy-msci-world-ex-controversial-weapons-track-privilege-h-eur-c-lu1291108998
p299
sVlu1120433575
p300
Vhttp://www.bnpparibas-ip.fr/investisseur-prive-particulier/fundsheet/actions-internationales/theam-quant-equity-us-covered-c-eur-c-lu1120433732
p301
sVlu0347711466
p302
g256
sVlu0111466271
p303
Vhttp://www.bnpparibas-ip.fr/investisseur-prive-particulier/fundsheet/obligations-convertibles-emergentes/parvest-convertible-bond-asia-classic-eur-c-lu0281885953
p304
sVfr0010409946
p305
Vhttp://www.bnpparibas-ip.fr/investisseur-prive-particulier/fundsheet/obligations-europeennes/fundquest-bond-opportunities-classic-c-fr0010409946
p306
sVlu0930019236
p307
Vhttp://www.bnpparibas-ip.fr/investisseur-prive-particulier/fundsheet/produits-structures/bnp-paribas-plan-easy-future-2023-classic-c-lu0930019236
p308
sVfr0010294959
p309
Vhttp://www.bnpparibas-ip.fr/investisseur-prive-particulier/fundsheet/autres-marches-monetaires/bnp-paribas-structure-court-terme-classic-c-fr0010609099
p310
sVlu0823414718
p311
g234
sVfr0011318039
p312
Vhttp://www.bnpparibas-ip.fr/investisseur-prive-particulier/fundsheet/obligations-europeennes/bnp-paribas-obliselect-nordic-hy-2019-classic-c-fr0011318039
p313
sVlu1270631846
p314
g190
sVlu0930019582
p315
g65
sVlu0823387054
p316
g244
sVlu0030437460
p317
g114
sVlu0107061904
p318
g200
sVlu0823449425
p319
g262
sVfr0011681956
p320
Vhttp://www.bnpparibas-ip.fr/investisseur-prive-particulier/fundsheet/produits-structures/bnp-paribas-eco-developpement-2021-classic-c-fr0011681956
p321
sVfr0013176369
p322
Vhttp://www.bnpparibas-ip.fr/investisseur-prive-particulier/fundsheet/obligations-europeennes/bnp-paribas-sustainable-bond-euro-short-term-classic-c-fr0013176336
p323
sVfr0011249390
p324
Vhttp://www.bnpparibas-ip.fr/investisseur-prive-particulier/fundsheet/produits-structures/bnp-paribas-gestion-active-octobre-2018-classic-c-fr0011249390
p325
sVlu0783285330
p326
Vhttp://www.bnpparibas-ip.fr/investisseur-prive-particulier/fundsheet/marche-monetaire-usd/bnp-paribas-insticash-usd-classic-c-lu0167238863
p327
sVlu0823449268
p328
g262
sVfr0000285629
p329
Vhttp://www.bnpparibas-ip.fr/investisseur-prive-particulier/fundsheet/obligations-convertibles-europeennes/camgestion-convertibles-europe-classic-h-fr0000285629
p330
sVfr0011908102
p331
Vhttp://www.bnpparibas-ip.fr/investisseur-prive-particulier/fundsheet/obligations-europeennes/bnp-paribas-euro-flexi-bond-income-a-h-fr0011908078
p332
sVlu1481201702
p333
Vhttp://www.bnpparibas-ip.fr/investisseur-prive-particulier/fundsheet/actions-europeennes/bnp-paribas-easy-equity-value-europe-ucits-etf-c-lu1377382285
p334
sVlu0957145369
p335
g120
sVlu0531975158
p336
g16
sVlu0012181235
p337
Vhttp://www.bnpparibas-ip.fr/investisseur-prive-particulier/fundsheet/actions-americaines/parvest-equity-usa-classic-eur-c-lu0251804968
p338
sVlu0823401574
p339
Vhttp://www.bnpparibas-ip.fr/investisseur-prive-particulier/fundsheet/actions-europeennes/parvest-equity-best-selection-euro-classic-c-lu0823401574
p340
sVlu1056593426
p341
g90
sVfr0010670653
p342
g139
sVlu1245560070
p343
Vhttp://www.bnpparibas-ip.fr/investisseur-prive-particulier/fundsheet/actions-emergentes/theam-quant-equity-emerging-guru-c-eur-c-lu1120436321
p344
sVlu0823389423
p345
g71
sVfr0012739431
p346
Vhttp://www.bnpparibas-ip.fr/investisseur-prive-particulier/fundsheet/actions-europeennes/bnp-paribas-easy-euro-stoxx-50-ucits-etf-eur-c-c-fr0012739431
p347
sVlu0111445861
p348
Vhttp://www.bnpparibas-ip.fr/investisseur-prive-particulier/fundsheet/autres-fonds-actions-pays-developpes/parvest-equity-japan-classic-eur-c-lu0251809090
p349
sVlu1291107248
p350
g161
sVlu1291098314
p351
Vhttp://www.bnpparibas-ip.fr/investisseur-prive-particulier/fundsheet/actions-emergentes/bnp-paribas-easy-msci-emerging-markets-sri-ucits-etf-c-lu1291098314
p352
sVfr0010609099
p353
g310
sVlu0177332573
p354
Vhttp://www.bnpparibas-ip.fr/investisseur-prive-particulier/fundsheet/actions-europeennes/parvest-equity-europe-value-classic-c-lu0177332227
p355
sVlu0167236909
p356
Vhttp://www.bnpparibas-ip.fr/investisseur-prive-particulier/fundsheet/marche-monetaire-gbp/bnp-paribas-insticash-gbp-classic-c-lu0167236651
p357
sVlu0086914446
p358
Vhttp://www.bnpparibas-ip.fr/investisseur-prive-particulier/fundsheet/obligations-europeennes/parvest-bond-euro-medium-term-classic-c-lu0086914362
p359
sVlu0950372911
p360
Vhttp://www.bnpparibas-ip.fr/investisseur-prive-particulier/fundsheet/actions-europeennes/parvest-equity-nordic-small-cap-classic-c-lu0950372838
p361
sVlu0245286777
p362
Vhttp://www.bnpparibas-ip.fr/investisseur-prive-particulier/fundsheet/actions-internationales/bnp-paribas-islamic-fund-equity-optimiser-classic-c-lu0245286777
p363
sVfr0011176841
p364
Vhttp://www.bnpparibas-ip.fr/investisseur-prive-particulier/fundsheet/autres-marches-monetaires/bnp-paribas-court-terme-assurance-classic-c-fr0011176841
p365
sVlu0828230770
p366
Vhttp://www.bnpparibas-ip.fr/investisseur-prive-particulier/fundsheet/obligations-europeennes/parvest-sustainable-bond-euro-classic-c-lu0828230697
p367
sVlu1291092978
p368
Vhttp://www.bnpparibas-ip.fr/investisseur-prive-particulier/fundsheet/obligations-internationales/bnp-paribas-easy-jpm-gbi-emu-track-privilege-c-lu1291092978
p369
sVfr0012553659
p370
Vhttp://www.bnpparibas-ip.fr/investisseur-prive-particulier/fundsheet/obligations-europeennes/camgestion-obliflexible-classic-h-fr0012553659
p371
sVlu1325793427
p372
Vhttp://www.bnpparibas-ip.fr/investisseur-prive-particulier/fundsheet/actions-internationales/parworld-equity-world-defi-classic-c-lu1325792700
p373
sVlu0823380398
p374
g46
sVfr0010115014
p375
g157
sVlu1291098827
p376
Vhttp://www.bnpparibas-ip.fr/investisseur-prive-particulier/fundsheet/actions-europeennes/bnp-paribas-easy-msci-emu-ex-controversial-weapons-track-privilege-c-lu1291098660
p377
sVfr0012686020
p378
Vhttp://www.bnpparibas-ip.fr/investisseur-prive-particulier/fundsheet/actions-internationales/fundquest-ethisworld-b-h-fr0012686046
p379
sVlu1022398652
p380
g272
sVlu0158838473
p381
Vhttp://www.bnpparibas-ip.fr/investisseur-prive-particulier/fundsheet/actions-europeennes/bnp-paribas-l1-equity-europe-classic-c-lu0010012721
p382
sVfr0007494166
p383
Vhttp://www.bnpparibas-ip.fr/investisseur-prive-particulier/fundsheet/obligations-europeennes/camgestion-oblicycle-inflation-classic-c-fr0007494166
p384
sVlu0111466198
p385
g52
sVfr0010712729
p386
Vhttp://www.bnpparibas-ip.fr/investisseur-prive-particulier/fundsheet/obligations-europeennes/camgestion-euroblig-classic-c-fr0010712729
p387
sVfr0010576777
p388
Vhttp://www.bnpparibas-ip.fr/investisseur-prive-particulier/fundsheet/marche-monetaire-eur/bami-tresorerie-classic-c-fr0010576777
p389
sVlu0907251499
p390
g96
sVlu0194438338
p391
g349
sVlu0010000809
p392
g18
sVlu0823426480
p393
g183
sVfr0010636456
p394
Vhttp://www.bnpparibas-ip.fr/investisseur-prive-particulier/fundsheet/rendement-absolu/bnp-paribas-multistrategies-actif-classique-c-fr0010636456
p395
sVfr0010716217
p396
Vhttp://www.bnpparibas-ip.fr/investisseur-prive-particulier/fundsheet/diversifie-monde/camgestion-g-n-ration-2021-25-classic-c-fr0010716217
p397
sVlu0823432454
p398
g153
sVlu1022403676
p399
g104
sVfr0007044706
p400
Vhttp://www.bnpparibas-ip.fr/investisseur-prive-particulier/fundsheet/actions-europeennes/cnp-assur-smid-cap-europe-classique-h-fr0007044706
p401
sVlu1481200217
p402
Vhttp://www.bnpparibas-ip.fr/investisseur-prive-particulier/fundsheet/obligations-internationales/bnp-paribas-easy-barclays-euro-government-inflation-linked-all-maturities-track-privilege-c-lu1291090766
p403
sVlu0190304740
p404
Vhttp://www.bnpparibas-ip.fr/investisseur-prive-particulier/fundsheet/obligations-europeennes/parvest-bond-euro-inflation-linked-classic-c-lu0190304583
p405
sVfr0007068051
p406
Vhttp://www.bnpparibas-ip.fr/investisseur-prive-particulier/fundsheet/actions-europeennes/bnp-paribas-easy-stoxx-europe-600-media-ucits-etf-classique-c-fr0007068051
p407
sVfr0000299620
p408
Vhttp://www.bnpparibas-ip.fr/investisseur-prive-particulier/fundsheet/marche-monetaire-eur/bnp-paribas-mone-etat-classic-c-fr0011279827
p409
sVlu0982365545
p410
Vhttp://www.bnpparibas-ip.fr/investisseur-prive-particulier/fundsheet/actions-europeennes/bnp-paribas-l1-equity-europe-low-volatility-classic-c-lu0982365545
p411
sVlu1150255971
p412
Vhttp://www.bnpparibas-ip.fr/investisseur-prive-particulier/fundsheet/obligations-internationales/bnp-paribas-islamic-fund-hilal-income-classic-c-lu1150255971
p413
sVfr0010146522
p414
Vhttp://www.bnpparibas-ip.fr/investisseur-prive-particulier/fundsheet/diversifie-monde/bnp-paribas-retraite-responsable-horizon-i-100-c-fr0010146522
p415
sVlu0823416762
p416
Vhttp://www.bnpparibas-ip.fr/investisseur-prive-particulier/fundsheet/actions-internationales/parvest-equity-world-health-care-classic-c-lu0823416762
p417
sVfr0010714279
p418
g6
sVlu0107086729
p419
g249
sVfr0011033950
p420
Vhttp://www.bnpparibas-ip.fr/investisseur-prive-particulier/fundsheet/obligations-internationales/bnp-paribas-double-garantie-juillet-2017-classic-c-fr0011033950
p421
sVlu0111550652
p422
g40
sVlu1049887414
p423
Vhttp://www.bnpparibas-ip.fr/investisseur-prive-particulier/fundsheet/actions-europeennes/theam-quant-equity-europe-income-defensive-c-c-lu1049885806
p424
sVlu0823431720
p425
g153
sVfr0011036110
p426
Vhttp://www.bnpparibas-ip.fr/investisseur-prive-particulier/fundsheet/actions-europeennes/camgestion-actions-euro-classic-c-fr0011036110
p427
sVlu0225845295
p428
g236
sVfr0010941617
p429
Vhttp://www.bnpparibas-ip.fr/investisseur-prive-particulier/fundsheet/produits-structures/yosemite-classic-c-fr0010941617
p430
sVlu0823425169
p431
Vhttp://www.bnpparibas-ip.fr/investisseur-prive-particulier/fundsheet/actions-internationales/parvest-equity-world-utilities-classic-c-lu0823424782
p432
sVlu0823392211
p433
g149
sVfr0010076638
p434
Vhttp://www.bnpparibas-ip.fr/investisseur-prive-particulier/fundsheet/diversifie-monde/bnp-paribas-floreal-30-classic-d-fr0010076638
p435
sVlu0212189012
p436
g12
sVfr0010376848
p437
Vhttp://www.bnpparibas-ip.fr/investisseur-prive-particulier/fundsheet/actions-europeennes/fundquest-europe-opportunities-classic-c-fr0010376848
p438
sVlu0823411458
p439
g48
sVlu0774754948
p440
Vhttp://www.bnpparibas-ip.fr/investisseur-prive-particulier/fundsheet/actions-internationales/parworld-quant-equity-world-guru-classic-c-lu0774754948
p441
sVlu0377066633
p442
Vhttp://www.bnpparibas-ip.fr/investisseur-prive-particulier/fundsheet/obligations-convertibles-europeennes/bnp-paribas-l1-convertible-bond-best-selection-europe-classic-c-lu0377063960
p443
sVlu0823449698
p444
g262
sVlu1291102108
p445
Vhttp://www.bnpparibas-ip.fr/investisseur-prive-particulier/fundsheet/actions-internationales/bnp-paribas-easy-msci-japan-ex-controversial-weapons-track-classic-capitalisationlu1291101985
p446
sVlu0930020911
p447
Vhttp://www.bnpparibas-ip.fr/investisseur-prive-particulier/fundsheet/produits-structures/bnp-paribas-plan-easy-future-2043-classic-c-lu0930020838
p448
sVlu0823401731
p449
g340
sVlu1022808221
p450
Vhttp://www.bnpparibas-ip.fr/investisseur-prive-particulier/fundsheet/autres-fonds-actions-pays-developpes/parvest-equity-usa-value-classic-eur-c-lu1022808148
p451
sVlu0823422497
p452
g291
sVlu1022399973
p453
g451
sVfr0010113639
p454
Vhttp://www.bnpparibas-ip.fr/investisseur-prive-particulier/fundsheet/obligations-europeennes/bnp-paribas-obli-ct-classic-c-fr0010112094
p455
sVlu0111463419
p456
g102
sVlu1484486805
p457
Vhttp://www.bnpparibas-ip.fr/investisseur-prive-particulier/fundsheet/rendement-absolu/parworld-lyra-classic-c-lu1484486714
p458
sVlu1022392531
p459
Vhttp://www.bnpparibas-ip.fr/investisseur-prive-particulier/fundsheet/obligations-europeennes/parvest-bond-euro-short-term-corporate-classic-c-lu1022392028
p460
sVlu0823398259
p461
Vhttp://www.bnpparibas-ip.fr/investisseur-prive-particulier/fundsheet/actions-emergentes/parvest-equity-best-selection-asia-ex-japan-classic-eur-c-lu0823397368
p462
sVlu1022394156
p463
Vhttp://www.bnpparibas-ip.fr/investisseur-prive-particulier/fundsheet/obligations-internationales/parvest-bond-world-high-yield-short-duration-classic-c-lu1022394156
p464
sVfr0010077362
p465
Vhttp://www.bnpparibas-ip.fr/investisseur-prive-particulier/fundsheet/actions-europeennes/bnp-paribas-europe-dividende-responsable-classic-c-fr0010077362
p466
sVlu0823381289
p467
Vhttp://www.bnpparibas-ip.fr/investisseur-prive-particulier/fundsheet/obligations-europeennes/parvest-bond-euro-high-yield-classic-c-lu0823380802
p468
sVfr0011236652
p469
Vhttp://www.bnpparibas-ip.fr/investisseur-prive-particulier/fundsheet/matieres-premieres/alpha-commodity-fund-a-usd-c-fr0011236652
p470
sVlu0823397954
p471
g462
sVfr0010772020
p472
Vhttp://www.bnpparibas-ip.fr/investisseur-prive-particulier/fundsheet/actions-europeennes/camgestion-deep-value-classic-c-fr0010772020
p473
sVlu0823433932
p474
g75
sVlu0823402036
p475
g340
sVfr0010230516
p476
Vhttp://www.bnpparibas-ip.fr/investisseur-prive-particulier/fundsheet/actions-europeennes/euro-stoxx-theam-easy-ucits-etf-classique-h-fr0010230516
p477
sVlu0281885953
p478
g304
sVlu0823406961
p479
Vhttp://www.bnpparibas-ip.fr/investisseur-prive-particulier/fundsheet/actions-emergentes/parvest-equity-high-dividend-pacific-classic-eur-c-lu0823406961
p480
sVlu1078737910
p481
Vhttp://www.bnpparibas-ip.fr/investisseur-prive-particulier/fundsheet/diversifie-monde/bnp-paribas-a-fund-european-multi-asset-income-classic-c-lu1078737910
p482
sVlu0095613583
p483
g304
sVfr0011550680
p484
Vhttp://www.bnpparibas-ip.fr/investisseur-prive-particulier/fundsheet/actions-americaines/bnp-paribas-easy-s-p-500-ucits-etf-c-eur-c-fr0011550185
p485
sVlu1049891101
p486
g216
sVlu0218129350
p487
Vhttp://www.bnpparibas-ip.fr/investisseur-prive-particulier/fundsheet/rendement-absolu/parworld-tracker-macro-opportunities-classic-c-lu0218129350
p488
sVfr0007006911
p489
Vhttp://www.bnpparibas-ip.fr/investisseur-prive-particulier/fundsheet/portefeuilles-diversifies-europe/camgestion-active-convictions-classic-c-fr0007006911
p490
sVlu0194436803
p491
g79
sVlu0823403943
p492
g295
sVfr0011182773
p493
Vhttp://www.bnpparibas-ip.fr/investisseur-prive-particulier/fundsheet/obligations-internationales/bnp-paribas-double-garantie-juillet-2020-classic-c-fr0011182773
p494
sVlu1056593343
p495
g90
sVlu1080341578
p496
Vhttp://www.bnpparibas-ip.fr/investisseur-prive-particulier/fundsheet/obligations-americaines/bnp-paribas-flexi-i-us-mortgage-classic-c-lu1080341065
p497
sVlu1235113286
p498
Vhttp://www.bnpparibas-ip.fr/investisseur-prive-particulier/fundsheet/actions-europeennes/theam-quant-equity-europe-income-protected-protected-i-c-lu1235113286
p499
sVfr0010028910
p500
Vhttp://www.bnpparibas-ip.fr/investisseur-prive-particulier/fundsheet/actions-europeennes/bnp-paribas-actions-europe-classic-c-fr0010028910
p501
sVfr0013157146
p502
Vhttp://www.bnpparibas-ip.fr/investisseur-prive-particulier/fundsheet/actions-europeennes/bnp-paribas-smallcap-euroland-classic-c-fr0010128587
p503
sVlu0132151464
p504
Vhttp://www.bnpparibas-ip.fr/investisseur-prive-particulier/fundsheet/diversifie-monde/bnp-paribas-l1-diversified-world-balanced-classic-c-lu0132151118
p505
sVfr0010077453
p506
Vhttp://www.bnpparibas-ip.fr/investisseur-prive-particulier/fundsheet/actions-europeennes/bnp-paribas-technologies-europe-classic-c-fr0010077453
p507
sVfr0013153236
p508
Vhttp://www.bnpparibas-ip.fr/investisseur-prive-particulier/fundsheet/obligations-europeennes/bnp-paribas-european-hy-2022-classic-capitalisationfr0013153228
p509
sVfr0010714246
p510
g6
sVlu0823413157
p511
Vhttp://www.bnpparibas-ip.fr/investisseur-prive-particulier/fundsheet/actions-emergentes/parvest-equity-world-emerging-classic-eur-c-lu0823413074
p512
sVfr0010077461
p513
Vhttp://www.bnpparibas-ip.fr/investisseur-prive-particulier/fundsheet/actions-europeennes/bnp-paribas-energie-europe-classic-c-fr0010077461
p514
sVlu0823424865
p515
g432
sVlu1120431280
p516
Vhttp://www.bnpparibas-ip.fr/investisseur-prive-particulier/fundsheet/actions-internationales/theam-quant-equity-euro-covered-c-c-lu1120431280
p517
sVlu1484486714
p518
g458
sVlu0823428189
p519
Vhttp://www.bnpparibas-ip.fr/investisseur-prive-particulier/fundsheet/actions-europeennes/parvest-equity-germany-classic-c-lu0823427611
p520
sVfr0010076547
p521
Vhttp://www.bnpparibas-ip.fr/investisseur-prive-particulier/fundsheet/diversifie-monde/bnp-paribas-selection-dynamique-monde-classic-c-fr0010076547
p522
sVlu0111548326
p523
Vhttp://www.bnpparibas-ip.fr/investisseur-prive-particulier/fundsheet/obligations-europeennes/parvest-bond-euro-government-classic-c-lu0111548326
p524
sVfr0007031877
p525
Vhttp://www.bnpparibas-ip.fr/investisseur-prive-particulier/fundsheet/marche-monetaire-eur/bnp-paribas-monetaire-assurance-classic-c-fr0007031877
p526
sVlu0823390868
p527
Vhttp://www.bnpparibas-ip.fr/investisseur-prive-particulier/fundsheet/obligations-europeennes/parvest-bond-euro-classic-c-lu0075938133
p528
sVlu1151728836
p529
Vhttp://www.bnpparibas-ip.fr/investisseur-prive-particulier/fundsheet/diversifie-monde/bnp-paribas-l1-patrimoine-classic-c-lu1151728596
p530
sVlu0823385512
p531
g244
sVlu0212189368
p532
g12
sVlu0823417497
p533
g417
sVfr0013063989
p534
Vhttp://www.bnpparibas-ip.fr/investisseur-prive-particulier/fundsheet/actions-europeennes/ds-patrimoine-e-c-fr0013063989
p535
sVfr0010104901
p536
Vhttp://www.bnpparibas-ip.fr/investisseur-prive-particulier/fundsheet/obligations-europeennes/bnp-paribas-obli-long-terme-classic-c-fr0010098210
p537
sVlu0823408074
p538
g251
sVfr0007018775
p539
Vhttp://www.bnpparibas-ip.fr/investisseur-prive-particulier/fundsheet/portefeuilles-diversifies-europe/objectif-actions-classique-d-fr0007018775
p540
sVlu0823403786
p541
g295
sVlu1049895607
p542
Vhttp://www.bnpparibas-ip.fr/investisseur-prive-particulier/fundsheet/matieres-premieres/theam-quant-raw-materials-enhanced-j-eur-h-c-lu1049895193
p543
sVlu1325792700
p544
g373
sVlu1049884155
p545
Vhttp://www.bnpparibas-ip.fr/investisseur-prive-particulier/fundsheet/actions-americaines/theam-quant-equity-us-income-defensive-c-eur-c-lu1049884312
p546
sVfr0010144550
p547
g141
sVfr0013127172
p548
g270
sVlu0265291152
p549
Vhttp://www.bnpparibas-ip.fr/investisseur-prive-particulier/fundsheet/obligations-internationales/parvest-sustainable-bond-world-corporate-classic-c-lu0282388437
p550
sVlu1291103171
p551
Vhttp://www.bnpparibas-ip.fr/investisseur-prive-particulier/fundsheet/actions-americaines/bnp-paribas-easy-msci-kld-400-social-track-privilege-c-lu1291103171
p552
sVlu0950373133
p553
g361
sVlu0102019857
p554
g102
sVlu1056591560
p555
Vhttp://www.bnpparibas-ip.fr/investisseur-prive-particulier/fundsheet/actions-internationales/bnp-paribas-l1-equity-world-quality-focus-classic-c-lu1056591487
p556
sVfr0011333780
p557
Vhttp://www.bnpparibas-ip.fr/investisseur-prive-particulier/fundsheet/actions-europeennes/bnp-paribas-best-selection-euro-classic-h-fr0011333780
p558
sVlu0823427884
p559
g520
sVlu0154246218
p560
Vhttp://www.bnpparibas-ip.fr/investisseur-prive-particulier/fundsheet/actions-americaines/parvest-equity-usa-mid-cap-classic-eur-c-lu0251807045
p561
sVfr0011870997
p562
Vhttp://www.bnpparibas-ip.fr/investisseur-prive-particulier/fundsheet/diversifie-monde/bnp-paribas-social-business-france-classic-c-fr0011870997
p563
sVlu0823398507
p564
g287
sVlu1291090766
p565
g403
sVlu1291109616
p566
Vhttp://www.bnpparibas-ip.fr/investisseur-prive-particulier/fundsheet/matieres-premieres/bnp-paribas-easy-s-p-gsci-energy-metals-capped-component-35-20-ucits-etf-eur-c-lu1291109616
p567
sVlu0167236651
p568
g357
sVfr0010261842
p569
Vhttp://www.bnpparibas-ip.fr/investisseur-prive-particulier/fundsheet/actions-internationales/bnp-paribas-utilities-classic-c-fr0010261842
p570
sVlu0907251655
p571
Vhttp://www.bnpparibas-ip.fr/investisseur-prive-particulier/fundsheet/actions-emergentes/bnp-paribas-l1-equity-world-emerging-classic-c-lu0907251655
p572
sVlu0823417141
p573
g417
sVlu0925120700
p574
g40
sVlu0172351099
p575
g16
sVlu1291093604
p576
Vhttp://www.bnpparibas-ip.fr/investisseur-prive-particulier/fundsheet/obligations-internationales/bnp-paribas-easy-jpm-gbi-global-ex-emu-hedged-eur-track-privilege-c-lu1291093604
p577
sVfr0010682690
p578
Vhttp://www.bnpparibas-ip.fr/investisseur-prive-particulier/fundsheet/obligations-europeennes/cortal-consors-open-rendement-classic-c-fr0010682690
p579
sVlu0930020598
p580
Vhttp://www.bnpparibas-ip.fr/investisseur-prive-particulier/fundsheet/produits-structures/bnp-paribas-plan-easy-future-2038-classic-c-lu0930020598
p581
sVlu1165136257
p582
g36
sVlu0823418388
p583
g147
sVlu0823417224
p584
g417
sVfr0012538130
p585
Vhttp://www.bnpparibas-ip.fr/investisseur-prive-particulier/fundsheet/actions-internationales/bnp-paribas-strategie-privee-isr-actions-internationales-classic-c-fr0012538130
p586
sVfr0010668145
p587
Vhttp://www.bnpparibas-ip.fr/investisseur-prive-particulier/fundsheet/actions-internationales/bnp-paribas-aqua-classic-c-fr0010668145
p588
sVlu0111549217
p589
g524
sVlu1104115453
p590
Vhttp://www.bnpparibas-ip.fr/investisseur-prive-particulier/fundsheet/diversifie-monde/parvest-flexible-multi-asset-classic-c-lu1104115453
p591
sVfr0013176351
p592
g323
sVlu0066794719
p593
g185
sVfr0010417857
p594
Vhttp://www.bnpparibas-ip.fr/investisseur-prive-particulier/fundsheet/hedge-fund/bnp-paribas-alternatif-p-c-fr0010417857
p595
sVlu0161743942
p596
Vhttp://www.bnpparibas-ip.fr/investisseur-prive-particulier/fundsheet/obligations-europeennes/bnp-paribas-l1-bond-euro-high-yield-classic-c-lu0907251226
p597
sVfr0010146803
p598
Vhttp://www.bnpparibas-ip.fr/investisseur-prive-particulier/fundsheet/diversifie-monde/bnp-paribas-retraite-responsable-2022-2024-p-c-fr0010146803
p599
sVfr0010693168
p600
Vhttp://www.bnpparibas-ip.fr/investisseur-prive-particulier/fundsheet/obligations-europeennes/camgestion-oblicycle-credit-classic-c-fr0010693168
p601
sVlu1049884668
p602
g546
sVlu1022404724
p603
g274
sVlu0823412423
p604
g166
sVlu0823398929
p605
g287
sVfr0011882331
p606
Vhttp://www.bnpparibas-ip.fr/investisseur-prive-particulier/fundsheet/produits-structures/isis-europe-value-2020-classic-c-fr0011882331
p607
sVlu1022405374
p608
g274
sVfr0010028761
p609
Vhttp://www.bnpparibas-ip.fr/investisseur-prive-particulier/fundsheet/obligations-convertibles-europeennes/bnp-paribas-convertibles-europe-classic-c-fr0010028761
p610
sVlu0212175227
p611
g54
sVlu0107088931
p612
Vhttp://www.bnpparibas-ip.fr/investisseur-prive-particulier/fundsheet/diversifie-monde/parvest-diversified-dynamic-classic-c-lu0089291651
p613
sVlu0107087537
p614
g52
sVlu0158087725
p615
Vhttp://www.bnpparibas-ip.fr/investisseur-prive-particulier/fundsheet/actions-europeennes/bnp-paribas-l1-equity-euro-classic-c-lu0087045034
p616
sVlu1291097423
p617
Vhttp://www.bnpparibas-ip.fr/investisseur-prive-particulier/fundsheet/actions-emergentes/bnp-paribas-easy-msci-emerging-markets-ex-controversial-weapons-track-classic-c-lu1291097340
p618
sVlu0823450191
p619
g262
sVlu0823428932
p620
Vhttp://www.bnpparibas-ip.fr/investisseur-prive-particulier/fundsheet/actions-emergentes/parvest-equity-india-classic-eur-c-lu0823428346
p621
sVlu1022808494
p622
g451
sVlu1078738058
p623
g482
sVlu0823415871
p624
g20
sVlu0828230697
p625
g367
sVlu0823396717
p626
g8
sVfr0010274035
p627
Vhttp://www.bnpparibas-ip.fr/investisseur-prive-particulier/fundsheet/actions-europeennes/cnp-actions-europe-pioneer-a-h-fr0010250050
p628
sVlu0823448294
p629
Vhttp://www.bnpparibas-ip.fr/investisseur-prive-particulier/fundsheet/obligations-internationales/parvest-bond-absolute-return-v350-classic-c-lu0823447643
p630
sVlu0107086646
p631
g359
sVlu0823447213
p632
g367
sVlu1291108303
p633
g299
sVlu1056594747
p634
g195
sVfr0007436654
p635
Vhttp://www.bnpparibas-ip.fr/investisseur-prive-particulier/fundsheet/obligations-internationales/munich-re-placement-classique-c-fr0007436654
p636
sVlu0823448450
p637
g630
sVlu0823407340
p638
g480
sVfr0007024583
p639
Vhttp://www.bnpparibas-ip.fr/investisseur-prive-particulier/fundsheet/diversifie-monde/cortal-consors-open-patrimoine-classic-c-fr0007024583
p640
sVlu1291101555
p641
Vhttp://www.bnpparibas-ip.fr/investisseur-prive-particulier/fundsheet/actions-europeennes/bnp-paribas-easy-msci-europe-small-caps-ex-controversial-weapons-track-privilege-c-lu1291101126
p642
sVfr0010948455
p643
Vhttp://www.bnpparibas-ip.fr/investisseur-prive-particulier/fundsheet/produits-structures/everglades-classic-c-fr0010948455
p644
sVlu0823415285
p645
g234
sVlu1235106660
p646
Vhttp://www.bnpparibas-ip.fr/investisseur-prive-particulier/fundsheet/actions-europeennes/theam-quant-equity-europe-guru-c-capitalisationlu1235104293
p647
sVlu0950381748
p648
Vhttp://www.bnpparibas-ip.fr/investisseur-prive-particulier/fundsheet/actions-europeennes/bnp-paribas-easy-ftse-epra-nareit-eurozone-capped-ucits-etf-qd-d-lu0192223062
p649
sVlu0925122151
p650
g349
sVlu0089291651
p651
g613
sVfr0012169837
p652
Vhttp://www.bnpparibas-ip.fr/investisseur-prive-particulier/fundsheet/matieres-premieres/theam-quant-raw-materials-enhanced-b-eur-h-c-fr0012169860
p653
sVlu0823448377
p654
g630
sVfr0010077321
p655
Vhttp://www.bnpparibas-ip.fr/investisseur-prive-particulier/fundsheet/actions-europeennes/bnp-paribas-finance-europe-classic-c-fr0010077321
p656
sVfr0011617729
p657
g159
sVlu0823422653
p658
g291
sVlu0823383061
p659
Vhttp://www.bnpparibas-ip.fr/investisseur-prive-particulier/fundsheet/produits-de-taux-emergents/parvest-bond-europe-emerging-classic-c-lu0823382766
p660
sVlu0347712357
p661
g256
sVfr0010146894
p662
g132
sVlu1022808148
p663
g451
sVfr0010911107
p664
Vhttp://www.bnpparibas-ip.fr/investisseur-prive-particulier/fundsheet/produits-structures/appaloosa-classic-c-fr0010911107
p665
sVfr0010334573
p666
Vhttp://www.bnpparibas-ip.fr/investisseur-prive-particulier/fundsheet/diversifie-monde/dynamique-classic-c-fr0010334573
p667
sVfr0000977555
p668
Vhttp://www.bnpparibas-ip.fr/investisseur-prive-particulier/fundsheet/diversifie-monde/selection-moderate-international-classic-c-fr0000977555
p669
sVlu0823397525
p670
g462
sVlu0823394266
p671
g52
sVlu0823398416
p672
g287
sVlu0823443659
p673
g32
sVlu0930020085
p674
Vhttp://www.bnpparibas-ip.fr/investisseur-prive-particulier/fundsheet/produits-structures/bnp-paribas-plan-easy-future-2028-classic-c-lu0930019749
p675
sVlu0925122748
p676
g85
sVlu0111549134
p677
g524
sVfr0010565424
p678
Vhttp://www.bnpparibas-ip.fr/investisseur-prive-particulier/fundsheet/actions-internationales/theam-euro-long-vol-classic-c-fr0010565424
p679
sVlu0167238863
p680
g327
sVlu0823395743
p681
g204
sVlu1291105382
p682
Vhttp://www.bnpparibas-ip.fr/investisseur-prive-particulier/fundsheet/actions-emergentes/bnp-paribas-easy-msci-pacific-ex-japan-ex-controversial-weapons-track-classic-capitalisationlu1291105382
p683
sVfr0010146852
p684
Vhttp://www.bnpparibas-ip.fr/investisseur-prive-particulier/fundsheet/diversifie-monde/bnp-paribas-retraite-responsable-50-p-c-fr0010146852
p685
sVfr0007484399
p686
Vhttp://www.bnpparibas-ip.fr/investisseur-prive-particulier/fundsheet/marche-monetaire-eur/invest-monetaire-classic-c-fr0007484399
p687
sVlu0925123472
p688
g85
sVlu0177332490
p689
g355
sVlu0283503844
p690
g338
sVlu0823397368
p691
g462
sVlu1291106356
p692
g683
sVfr0010692301
p693
Vhttp://www.bnpparibas-ip.fr/investisseur-prive-particulier/fundsheet/produits-structures/capoeira-classic-c-fr0010692301
p694
sVlu0075938133
p695
g528
sVlu0823381792
p696
g405
sVlu1049884239
p697
g546
sVlu0154245673
p698
g561
sVlu0823382766
p699
g660
sVfr0013125663
p700
Vhttp://www.bnpparibas-ip.fr/investisseur-prive-particulier/fundsheet/actions-europeennes/theam-quant-equity-eurozone-guru-j-c-fr0013125663
p701
sVfr0011201003
p702
Vhttp://www.bnpparibas-ip.fr/investisseur-prive-particulier/fundsheet/produits-structures/bnp-paribas-gestion-active-plus-classic-c-fr0011201003
p703
sVfr0010839274
p704
Vhttp://www.bnpparibas-ip.fr/investisseur-prive-particulier/fundsheet/diversifie-monde/bnp-paribas-retraite-responsable-2028-2030-p-c-fr0010839274
p705
sVfr0010732719
p706
Vhttp://www.bnpparibas-ip.fr/investisseur-prive-particulier/fundsheet/portefeuilles-diversifies-europe/camgestion-europe-modere-classique-c-fr0010732719
p707
sVlu0823437925
p708
g42
sVfr0010714261
p709
g6
sVlu0823400766
p710
g207
sVlu1481202775
p711
Vhttp://www.bnpparibas-ip.fr/investisseur-prive-particulier/fundsheet/obligations-internationales/bnp-paribas-easy-markit-iboxx-eur-liquid-corporates-track-privilege-c-lu1291094321
p712
sVlu0823379036
p713
g46
sVfr0010276949
p714
Vhttp://www.bnpparibas-ip.fr/investisseur-prive-particulier/fundsheet/obligations-internationales/bnp-paribas-easy-markit-iboxx-liquid-sovereigns-ucits-etf-classique-c-fr0010276949
p715
sVlu0265268929
p716
g164
sVlu0903144755
p717
g262
sVlu0823443816
p718
g32
sVlu1049889972
p719
g130
sVlu0167237972
p720
Vhttp://www.bnpparibas-ip.fr/investisseur-prive-particulier/fundsheet/marche-monetaire-eur/bnp-paribas-insticash-eur-classic-c-lu0167237543
p721
sVlu0132151118
p722
g505
sVlu1056594234
p723
g195
sVlu0907251572
p724
Vhttp://www.bnpparibas-ip.fr/investisseur-prive-particulier/fundsheet/obligations-convertibles-internationales/bnp-paribas-l1-convertible-bond-world-classic-c-lu0907251572
p725
sVfr0011950583
p726
g306
sVlu0086914362
p727
g359
sVlu0957145286
p728
g120
sVlu1104113243
p729
g100
sVlu0823389852
p730
g71
sVlu1291099718
p731
Vhttp://www.bnpparibas-ip.fr/investisseur-prive-particulier/fundsheet/actions-europeennes/bnp-paribas-easy-msci-europe-ex-controversial-weapons-track-classic-c-lu1291099395
p732
sVlu0823388888
p733
g175
sVlu1120433732
p734
g301
sVlu0282885655
p735
Vhttp://www.bnpparibas-ip.fr/investisseur-prive-particulier/fundsheet/actions-europeennes/parvest-equity-europe-small-cap-classic-c-lu0212178916
p736
sVlu1291098660
p737
g377
sVlu1022394404
p738
g464
sVfr0011819002
p739
Vhttp://www.bnpparibas-ip.fr/investisseur-prive-particulier/fundsheet/obligations-europeennes/bnp-paribas-oblipar-classic-c-fr0011829225
p740
sVlu0283434859
p741
g24
sVlu0111463849
p742
g359
sVlu0907251226
p743
g597
sVfr0011279827
p744
g409
sVfr0007010632
p745
Vhttp://www.bnpparibas-ip.fr/investisseur-prive-particulier/fundsheet/portefeuilles-diversifies-europe/camgestion-ep-classique-d-fr0007010632
p746
sVlu0095613823
p747
g304
sVlu0099625146
p748
Vhttp://www.bnpparibas-ip.fr/investisseur-prive-particulier/fundsheet/obligations-internationales/parvest-flexible-bond-europe-corporate-classic-c-lu0099625146
p749
sVlu0107049875
p750
g349
sVfr0011538230
p751
Vhttp://www.bnpparibas-ip.fr/investisseur-prive-particulier/fundsheet/actions-europeennes/bnp-paribas-indice-euro-classic-c-fr0011538230
p752
sVlu0540527073
p753
Vhttp://www.bnpparibas-ip.fr/investisseur-prive-particulier/fundsheet/obligations-europeennes/bnp-paribas-flexi-i-bond-government-euro-restricted-classic-c-lu0540527073
p754
sVlu0111461124
p755
g293
sVlu0823391247
p756
Vhttp://www.bnpparibas-ip.fr/investisseur-prive-particulier/fundsheet/obligations-americaines/parvest-bond-usd-classic-eur-c-lu0823391080
p757
sVlu0159095446
p758
Vhttp://www.bnpparibas-ip.fr/investisseur-prive-particulier/fundsheet/diversifie-monde/bnp-paribas-l1-sustainable-active-allocation-classic-c-lu0087047089
p759
sVlu0075937911
p760
g528
sVfr0010077255
p761
Vhttp://www.bnpparibas-ip.fr/investisseur-prive-particulier/fundsheet/produits-structures/bnp-paribas-multistrategies-protection-80-classic-c-fr0010077255
p762
sVfr0010150458
p763
Vhttp://www.bnpparibas-ip.fr/investisseur-prive-particulier/fundsheet/actions-europeennes/bnp-paribas-easy-cac-40-ucits-etf-classique-d-fr0010150458
p764
sVlu1303481060
p765
Vhttp://www.bnpparibas-ip.fr/investisseur-prive-particulier/fundsheet/autres-fonds-actions-pays-developpes/bnp-paribas-l1-japan-classic-eur-c-lu1303481060
p766
sVfr0011222462
p767
Vhttp://www.bnpparibas-ip.fr/investisseur-prive-particulier/fundsheet/produits-de-taux-emergents/bnp-paribas-obliselect-terra-nova-2017-classic-c-fr0011222439
p768
sVlu0823444467
p769
Vhttp://www.bnpparibas-ip.fr/investisseur-prive-particulier/fundsheet/immobilier-monde/parvest-real-estate-securities-world-classic-c-lu0823444111
p770
sVlu0111478524
p771
g4
sVlu0194435318
p772
g338
sVno0010668114
p773
Vhttp://www.bnpparibas-ip.fr/investisseur-prive-particulier/fundsheet/obligations-europeennes/alfred-berg-hoyrente-classic-eur-d-no0010668114
p774
sVlu0823391080
p775
g757
sVlu0531997046
p776
g168
sVlu0159091882
p777
g505
sVlu0111478441
p778
g79
sVfr0010248310
p779
Vhttp://www.bnpparibas-ip.fr/investisseur-prive-particulier/fundsheet/actions-europeennes/cnp-actions-europe-schroders-a-h-fr0010248310
p780
sVfr0010077859
p781
Vhttp://www.bnpparibas-ip.fr/investisseur-prive-particulier/fundsheet/actions-europeennes/bnp-paribas-midcap-france-classic-c-fr0010616177
p782
sVlu0132152785
p783
g168
sVlu0823404248
p784
g297
sVlu0823428007
p785
g520
sVlu0066794479
p786
g185
sVlu0823430326
p787
g98
sVlu0823394001
p788
g304
sVlu0828230937
p789
g367
sVlu1291101985
p790
g446
sVlu0823391833
p791
g149
sVlu0111451240
p792
g267
sVlu0212175060
p793
g54
sVlu0823430243
p794
g98
sVlu0131211418
p795
Vhttp://www.bnpparibas-ip.fr/investisseur-prive-particulier/fundsheet/obligations-europeennes/parvest-bond-euro-corporate-classic-c-lu0131210360
p796
sVlu0283465069
p797
g757
sVfr0010116541
p798
Vhttp://www.bnpparibas-ip.fr/investisseur-prive-particulier/fundsheet/actions-europeennes/bnp-paribas-actions-euroland-classic-c-fr0010115410
p799
sVfr0013230232
p800
Vhttp://www.bnpparibas-ip.fr/investisseur-prive-particulier/fundsheet/obligations-europeennes/bnp-paribas-credit-12-m-classic-c-fr0013230232
p801
sVlu1049885806
p802
g424
sVlu0823431050
p803
g349
sVlu1291109293
p804
Vhttp://www.bnpparibas-ip.fr/investisseur-prive-particulier/fundsheet/actions-internationales/bnp-paribas-easy-nmx-30-infrastructure-global-ucits-etf-c-lu1291109293
p805
sVlu0547770783
p806
g721
sVlu0212180813
p807
g736
sVlu0087047089
p808
g759
sVfr0007045901
p809
Vhttp://www.bnpparibas-ip.fr/investisseur-prive-particulier/fundsheet/diversifie-monde/gestion-equilibre-international-classic-c-fr0007045901
p810
sVlu0265291822
p811
Vhttp://www.bnpparibas-ip.fr/investisseur-prive-particulier/fundsheet/obligations-convertibles-europeennes/parvest-convertible-bond-europe-small-cap-classic-c-lu0265291665
p812
sVlu1049884585
p813
g546
sVlu0265313816
p814
g164
sVlu0075933175
p815
g200
sVlu0116160465
p816
g220
sVlu0823408660
p817
g251
sVlu1056591487
p818
g556
sVlu1022400060
p819
g451
sVfr0010688077
p820
g579
sVlu0823429401
p821
g621
sVlu0111465547
p822
g749
sVfr0011383538
p823
Vhttp://www.bnpparibas-ip.fr/investisseur-prive-particulier/fundsheet/marche-monetaire-eur/bnp-paribas-invest-3-mois-classic-c-fr0010209916
p824
sVfr0007026448
p825
Vhttp://www.bnpparibas-ip.fr/investisseur-prive-particulier/fundsheet/diversifie-monde/selection-dynamique-europe-classic-c-fr0007026448
p826
sVlu0823429583
p827
g621
sVfr0010137166
p828
Vhttp://www.bnpparibas-ip.fr/investisseur-prive-particulier/fundsheet/actions-europeennes/bnp-paribas-euro-valeurs-durables-classic-c-fr0010137166
p829
sVlu0823404750
p830
g297
sVlu1022392028
p831
g460
sVfr0010076430
p832
Vhttp://www.bnpparibas-ip.fr/investisseur-prive-particulier/fundsheet/diversifie-monde/bnp-paribas-selection-dynamique-pea-classic-c-fr0010076430
p833
sVfr0010390807
p834
Vhttp://www.bnpparibas-ip.fr/investisseur-prive-particulier/fundsheet/diversifie-monde/bnp-paribas-retraite-responsable-2025-2027-p-c-fr0010390807
p835
sVfr0012538106
p836
Vhttp://www.bnpparibas-ip.fr/investisseur-prive-particulier/fundsheet/actions-internationales/bnp-paribas-strategie-privee-actions-internationales-classic-c-fr0012538106
p837
sVlu0111479092
p838
g528
sVlu0075933415
p839
g200
sVfr0010325597
p840
Vhttp://www.bnpparibas-ip.fr/investisseur-prive-particulier/fundsheet/actions-internationales/bnp-paribas-telecoms-classic-c-fr0010325597
p841
sVlu1022394826
p842
g464
sVlu0823394936
p843
g204
sVlu1056594408
p844
g195
sVlu0531774841
p845
g220
sVlu0823381362
p846
g468
sVfr0010319434
p847
Vhttp://www.bnpparibas-ip.fr/investisseur-prive-particulier/fundsheet/actions-europeennes/camgestion-actions-croissance-classic-c-fr0010319434
p848
sVlu1049884825
p849
g546
sVlu0823383145
p850
g660
sVlu0167237543
p851
g721
sVfr0011238898
p852
Vhttp://www.bnpparibas-ip.fr/investisseur-prive-particulier/fundsheet/produits-structures/3-dyneurope-classic-c-fr0011238898
p853
sVlu0950374610
p854
g122
sVlu0823449185
p855
g262
sVfr0007068044
p856
Vhttp://www.bnpparibas-ip.fr/investisseur-prive-particulier/fundsheet/actions-europeennes/bnp-paribas-easy-stoxx-europe-600-telecommunications-ucits-etf-classique-c-fr0007068044
p857
sVfr0007031562
p858
Vhttp://www.bnpparibas-ip.fr/investisseur-prive-particulier/fundsheet/actions-internationales/multigerants-dynamique-classique-c-fr0007031562
p859
sVlu1291097779
p860
g618
sVlu0823386163
p861
g244
sVfr0010108977
p862
Vhttp://www.bnpparibas-ip.fr/investisseur-prive-particulier/fundsheet/actions-internationales/bnp-paribas-actions-monde-classic-c-fr0010108977
p863
sVlu1353183533
p864
Vhttp://www.bnpparibas-ip.fr/investisseur-prive-particulier/fundsheet/rendement-absolu/theam-quant-multi-asset-diversified-c-capitalisationlu1353183533
p865
sVlu0194604798
p866
g725
sVlu0823395669
p867
g204
sVlu0249332452
p868
g258
sVlu0087045034
p869
g616
sVlu1151728596
p870
g530
sVlu0823444897
p871
g770
sVfr0007074208
p872
Vhttp://www.bnpparibas-ip.fr/investisseur-prive-particulier/fundsheet/actions-europeennes/camgestion-actions-rendement-classique-h-fr0007074208
p873
sVlu1329018219
p874
g424
sVlu0172350877
p875
g16
sVlu0823432025
p876
g153
sVfr0011102805
p877
Vhttp://www.bnpparibas-ip.fr/investisseur-prive-particulier/fundsheet/produits-structures/protected-trend-fund-a-c-fr0011102805
p878
sVlu0823380984
p879
g468
sVfr0011908094
p880
g332
sVfr0010077172
p881
Vhttp://www.bnpparibas-ip.fr/investisseur-prive-particulier/fundsheet/actions-europeennes/bnp-paribas-midcap-europe-classic-c-fr0010077172
p882
sVlu1291102447
p883
g446
sVfr0011314319
p884
g313
sVfr0010128587
p885
g503
sVlu0531757754
p886
g616
sVlu0282388437
p887
g550
sVfr0011132380
p888
Vhttp://www.bnpparibas-ip.fr/investisseur-prive-particulier/fundsheet/produits-structures/bnp-paribas-4-dragons-protection-95-2017-classic-c-fr0011132380
p889
sVlu0531774767
p890
g220
sVlu1165137149
p891
g50
sVlu0265289339
p892
Vhttp://www.bnpparibas-ip.fr/investisseur-prive-particulier/fundsheet/obligations-europeennes/parvest-sustainable-bond-euro-corporate-classic-c-lu0265288877
p893
sVlu0823449938
p894
g262
sVlu1049886283
p895
g424
sVlu0531768959
p896
g38
sVlu0107048042
p897
g338
sVlu1377382103
p898
Vhttp://www.bnpparibas-ip.fr/investisseur-prive-particulier/fundsheet/actions-europeennes/bnp-paribas-easy-equity-quality-europe-ucits-etf-c-lu1377382103
p899
sVfr0007068036
p900
Vhttp://www.bnpparibas-ip.fr/investisseur-prive-particulier/fundsheet/actions-europeennes/bnp-paribas-easy-stoxx-europe-600-utilities-ucits-etf-classique-c-fr0007068036
p901
sVfr0010107235
p902
g501
sVfr0012722882
p903
g34
sVfr0010715326
p904
Vhttp://www.bnpparibas-ip.fr/investisseur-prive-particulier/fundsheet/diversifie-monde/camgestion-g-n-ration-avenir-classic-c-fr0010715326
p905
sVlu1291109533
p906
g567
sVlu0012182639
p907
g4
sVlu0823402119
p908
g340
sVlu1235104020
p909
g647
sVlu1291096375
p910
Vhttp://www.bnpparibas-ip.fr/investisseur-prive-particulier/fundsheet/obligations-internationales/bnp-paribas-easy-markit-iboxx-global-developed-markets-liquid-100-high-yield-capped-track-privilege-rh-eur-capitalisationlu1291096375
p911
sVlu1151729727
p912
Vhttp://www.bnpparibas-ip.fr/investisseur-prive-particulier/fundsheet/actions-internationales/bnp-paribas-l1-smart-food-classic-c-lu1151729644
p913
sVlu1080341065
p914
g497
sVlu1104114647
p915
g102
sVlu0930020671
p916
g581
sVlu1165135440
p917
Vhttp://www.bnpparibas-ip.fr/investisseur-prive-particulier/fundsheet/actions-internationales/parvest-aqua-classic-c-lu1165135440
p918
sVlu0111493838
p919
g224
sVlu1163234351
p920
g179
sVlu0823385355
p921
g244
sVlu0282880698
p922
g236
sVlu0823414049
p923
g512
sVlu0212188121
p924
g12
sVlu1291099395
p925
g732
sVlu1492558348
p926
g546
sVfr0010129742
p927
g503
sVlu0111549480
p928
g40
sVlu0540527230
p929
g754
sVlu0251807045
p930
g561
sVfr0013153228
p931
g509
sVlu0010012721
p932
g382
sVlu1291094321
p933
g712
sVfr0011482686
p934
Vhttp://www.bnpparibas-ip.fr/investisseur-prive-particulier/fundsheet/marche-monetaire-eur/bnp-paribas-mois-isr-classic-c-fr0011482686
p935
sVlu0012186549
p936
Vhttp://www.bnpparibas-ip.fr/investisseur-prive-particulier/fundsheet/marche-monetaire-usd/parvest-money-market-usd-classic-c-lu0012186622
p937
sVfr0011257310
p938
g470
sVlu0194438841
p939
g267
sVlu0531998440
p940
Vhttp://www.bnpparibas-ip.fr/investisseur-prive-particulier/fundsheet/diversifie-monde/bnp-paribas-l1-diversified-world-stability-classic-c-lu0132151621
p941
sVlu0823444624
p942
g770
sVlu0823379895
p943
g46
sVlu1022394313
p944
g464
sVlu0069970746
p945
g267
sVlu1260147084
p946
Vhttp://www.bnpparibas-ip.fr/investisseur-prive-particulier/fundsheet/rendement-absolu/parworld-absolute-return-equity-neutral-classic-c-lu1260147084
p947
sVlu1104109647
p948
g304
sVlu0823387641
p949
g258
sVlu0823399810
p950
g207
sVlu1235104293
p951
g647
sVlu1049885988
p952
g424
sVlu0192223062
p953
g649
sVlu1163234518
p954
g179
sVlu0823416093
p955
g20
sVlu0823435127
p956
Vhttp://www.bnpparibas-ip.fr/investisseur-prive-particulier/fundsheet/actions-americaines/parvest-equity-usa-growth-classic-eur-c-lu0823434237
p957
sVfr0010629147
p958
Vhttp://www.bnpparibas-ip.fr/investisseur-prive-particulier/fundsheet/actions-europeennes/cortal-consors-open-croissance-classic-c-fr0010629147
p959
sVfr0013041530
p960
g485
sVlu1104112195
p961
Vhttp://www.bnpparibas-ip.fr/investisseur-prive-particulier/fundsheet/actions-emergentes/parvest-equity-new-frontiers-classic-c-lu1104111890
p962
sVlu0111481668
p963
g69
sVlu0258897114
p964
Vhttp://www.bnpparibas-ip.fr/investisseur-prive-particulier/fundsheet/produits-structures/bnp-paribas-plan-international-derivatives-classic-c-lu0258897114
p965
sVfr0013127164
p966
g270
sVlu0823434740
p967
g957
sVlu0823389696
p968
g71
sVlu0823408231
p969
g251
sVlu0116160549
p970
g220
sVlu0823409809
p971
g281
sVlu0823419782
p972
Vhttp://www.bnpparibas-ip.fr/investisseur-prive-particulier/fundsheet/actions-internationales/parvest-equity-world-materials-classic-c-lu0823419436
p973
sVfr0012443174
p974
g264
sVlu1022808577
p975
g451
sVlu0823450605
p976
g262
sVlu0823409718
p977
g281
sVfr0010077206
p978
Vhttp://www.bnpparibas-ip.fr/investisseur-prive-particulier/fundsheet/produits-structures/bnp-paribas-actions-euro-protege-classic-c-fr0010077206
p979
sVlu0190305630
p980
g405
sVfr0010376798
p981
Vhttp://www.bnpparibas-ip.fr/investisseur-prive-particulier/fundsheet/diversifie-monde/fundquest-balanced-classic-c-fr0010376798
p982
sVlu1291099478
p983
g732
sVlu0531758133
p984
g382
sVfr0011908078
p985
g332
sVlu0111453535
p986
g200
sVlu0111482476
p987
g69
sVfr0012591592
p988
Vhttp://www.bnpparibas-ip.fr/investisseur-prive-particulier/fundsheet/diversifie-monde/bnpp-european-flexible-income-a-h-fr0012591600
p989
sVlu0111469705
p990
g613
sVlu1377381717
p991
g2
sVfr0013176344
p992
g323
sVbe0146937793
p993
Vhttp://www.bnpparibas-ip.fr/investisseur-prive-particulier/fundsheet/diversifie-monde/bnp-paribas-b-strategy-global-neutral-classic-d-be0146937793
p994
sVlu1056591990
p995
g556
sVlu1377381980
p996
Vhttp://www.bnpparibas-ip.fr/investisseur-prive-particulier/fundsheet/actions-americaines/bnp-paribas-easy-equity-low-vol-us-ucits-etf-c-lu1377381980
p997
sVlu0111444898
p998
g338
sVlu0823429666
p999
g621
sVlu0930019319
p1000
g308
sVfr0012443182
p1001
g264
sVlu0879078565
p1002
g757
sVfr0010028779
p1003
Vhttp://www.bnpparibas-ip.fr/investisseur-prive-particulier/fundsheet/actions-americaines/bnp-paribas-actions-usa-classic-c-fr0010028779
p1004
sVlu1165135796
p1005
g918
sVfr0010101493
p1006
Vhttp://www.bnpparibas-ip.fr/investisseur-prive-particulier/fundsheet/actions-europeennes/bnp-paribas-valeurs-francaises-classic-c-fr0010028902
p1007
sVfr0010098210
p1008
g537
sVfr0007044698
p1009
Vhttp://www.bnpparibas-ip.fr/investisseur-prive-particulier/fundsheet/diversifie-monde/borghese-finance-classique-c-fr0007044698
p1010
sVlu1235113872
p1011
Vhttp://www.bnpparibas-ip.fr/investisseur-prive-particulier/fundsheet/actions-americaines/theam-quant-equity-us-income-protected-protected-i-c-lu1235113872
p1012
sVlu1342920672
p1013
Vhttp://www.bnpparibas-ip.fr/investisseur-prive-particulier/fundsheet/portefeuilles-diversifies-emergents/parvest-multi-asset-income-emerging-classic-eur-c-lu1342920672
p1014
sVlu0212176621
p1015
g54
sVno0010446552
p1016
g774
sVlu0190306364
p1017
g405
sVfr0010052043
p1018
Vhttp://www.bnpparibas-ip.fr/investisseur-prive-particulier/fundsheet/diversifie-monde/perseis-opportunites-monde-classic-c-fr0010052043
p1019
sVlu0083138064
p1020
g293
sVfr0011540152
p1021
Vhttp://www.bnpparibas-ip.fr/investisseur-prive-particulier/fundsheet/produits-structures/bnp-paribas-environnement-2019-classic-c-fr0011540152
p1022
sVlu1163234609
p1023
g179
sVlu1291091228
p1024
Vhttp://www.bnpparibas-ip.fr/investisseur-prive-particulier/fundsheet/actions-europeennes/bnp-paribas-easy-ftse-epra-nareit-developed-europe-ucits-etf-qd-d-lu1291091228
p1025
sVlu0360646680
p1026
Vhttp://www.bnpparibas-ip.fr/investisseur-prive-particulier/fundsheet/actions-europeennes/parvest-flexible-equity-europe-classic-c-lu0360646680
p1027
sVbe0146935771
p1028
Vhttp://www.bnpparibas-ip.fr/investisseur-prive-particulier/fundsheet/diversifie-monde/bnp-paribas-b-strategy-global-defensive-classic-c-be0146934766
p1029
sVlu0823392302
p1030
g149
sVbe0163305544
p1031
Vhttp://www.bnpparibas-ip.fr/investisseur-prive-particulier/fundsheet/diversifie-monde/bnp-paribas-b-strategy-global-dynamic-classic-d-be0163305544
p1032
sVfr0010655597
p1033
Vhttp://www.bnpparibas-ip.fr/investisseur-prive-particulier/fundsheet/actions-europeennes/bnp-paribas-easy-low-carbon-100-europe-ucits-etf-classique-c-fr0010655597
p1034
sVlu0823425912
p1035
g183
sVlu0823426720
p1036
g183
sVlu0823447643
p1037
g630
sVfr0010137174
p1038
g829
sVlu0282274348
p1039
g249
sVlu0283519337
p1040
g349
sVlu1049887331
p1041
g424
sVfr0000442014
p1042
g640
sVfr0010997858
p1043
Vhttp://www.bnpparibas-ip.fr/investisseur-prive-particulier/fundsheet/diversifie-monde/camgestion-g-n-ration-2026-30-classic-c-fr0010997858
p1044
sVlu0823444970
p1045
g770
sVlu1022396367
p1046
g204
sVlu0265313147
p1047
g254
sVlu1120436248
p1048
g344
sVlu0823389001
p1049
g175
sVfr0007433669
p1050
Vhttp://www.bnpparibas-ip.fr/investisseur-prive-particulier/fundsheet/diversifie-monde/gf-euro-convictions-classique-c-fr0007433669
p1051
sVlu1120436164
p1052
g344
sVlu1291100664
p1053
Vhttp://www.bnpparibas-ip.fr/investisseur-prive-particulier/fundsheet/actions-europeennes/bnp-paribas-easy-msci-europe-ex-uk-ex-controversial-weapons-track-classic-c-lu1291100151
p1054
sVlu1022398819
p1055
g272
sVfr0007068077
p1056
Vhttp://www.bnpparibas-ip.fr/investisseur-prive-particulier/fundsheet/actions-europeennes/bnp-paribas-easy-stoxx-europe-600-banks-ucits-etf-classique-c-fr0007068077
p1057
sVlu0879078482
p1058
g757
sVlu0823423032
p1059
g118
sVlu0823400840
p1060
g207
sVfr0010130765
p1061
Vhttp://www.bnpparibas-ip.fr/investisseur-prive-particulier/fundsheet/obligations-europeennes/bnp-paribas-obli-etat-classic-c-fr0010130765
p1062
sVlu0377063960
p1063
g443
sVfr0011742550
p1064
Vhttp://www.bnpparibas-ip.fr/investisseur-prive-particulier/fundsheet/matieres-premieres/theam-quant-dynamic-raw-materials-a-usd-c-fr0011742527
p1065
sVlu0823433429
p1066
g75
sVlu0823443493
p1067
g32
sVlu1291107917
p1068
g161
sVlu0212178916
p1069
g736
sVlu1151729644
p1070
g913
sVlu0159059996
p1071
g114
sVlu0930020325
p1072
Vhttp://www.bnpparibas-ip.fr/investisseur-prive-particulier/fundsheet/produits-structures/bnp-paribas-plan-easy-future-2033-classic-c-lu0930020168
p1073
sVlu0154246051
p1074
g561
sVfr0010076612
p1075
g151
sVlu1291091814
p1076
g228
sVfr0000294738
p1077
Vhttp://www.bnpparibas-ip.fr/investisseur-prive-particulier/fundsheet/marche-monetaire-eur/cardif-tresorerie-classic-c-fr0000294738
p1078
sVfr0007445119
p1079
Vhttp://www.bnpparibas-ip.fr/investisseur-prive-particulier/fundsheet/actions-emergentes/camgestion-emerging-bric-classique-c-fr0007445119
p1080
sVfr0010076943
p1081
g116
sVfr0011550193
p1082
g181
sVlu0225845535
p1083
g236
sVlu1104108755
p1084
g56
sVfr0010714253
p1085
g6
sVlu1291103338
p1086
g552
sVlu0662594125
p1087
g304
sVfr0010077412
p1088
Vhttp://www.bnpparibas-ip.fr/investisseur-prive-particulier/fundsheet/actions-europeennes/bnp-paribas-developpement-humain-classic-c-fr0010077412
p1089
sVlu0131210790
p1090
g796
sVfr0010716472
p1091
Vhttp://www.bnpparibas-ip.fr/investisseur-prive-particulier/fundsheet/diversifie-monde/camgestion-g-n-ration-2016-20-classic-c-fr0010716472
p1092
sVlu0930018857
p1093
Vhttp://www.bnpparibas-ip.fr/investisseur-prive-particulier/fundsheet/produits-structures/bnp-paribas-plan-easy-future-2018-classic-c-lu0930018691
p1094
sVlu1022394743
p1095
g464
sVfr0010077388
p1096
g155
sVlu1342920755
p1097
g1014
sVfr0011576610
p1098
Vhttp://www.bnpparibas-ip.fr/investisseur-prive-particulier/fundsheet/obligations-europeennes/bnp-paribas-deposit-moyen-terme-plus-classic-c-fr0011576610
p1099
sVlu0823382170
p1100
g59
sVfr0010315093
p1101
Vhttp://www.bnpparibas-ip.fr/investisseur-prive-particulier/fundsheet/produits-structures/bnp-paribas-protection-monde-classic-c-fr0010315093
p1102
sVlu0823398176
p1103
g462
sVlu1049895516
p1104
g543
sVlu0107086562
p1105
g102
sVlu0190304583
p1106
g405
sVfr0010106849
p1107
g212
sVfr0007068101
p1108
Vhttp://www.bnpparibas-ip.fr/investisseur-prive-particulier/fundsheet/actions-europeennes/bnp-paribas-easy-stoxx-europe-600-insurance-ucits-etf-classique-c-fr0007068101
p1109
sVlu0930020168
p1110
g1073
sVlu0823404834
p1111
g297
sVlu0823413587
p1112
g512
sVfr0007041496
p1113
Vhttp://www.bnpparibas-ip.fr/investisseur-prive-particulier/fundsheet/diversifie-monde/parjet-dynamique-classique-c-fr0007041496
p1114
sVlu0823410724
p1115
g48
sVlu0265288950
p1116
g893
sVfr0011383553
p1117
Vhttp://www.bnpparibas-ip.fr/investisseur-prive-particulier/fundsheet/marche-monetaire-eur/bnp-paribas-tresorerie-3-mois-classic-c-fr0010125880
p1118
sVlu0823447999
p1119
g630
sVlu1022400813
p1120
g451
sVlu0251806666
p1121
g48
sVlu1049888149
p1122
g424
sVlu0251804968
p1123
g338
sVfr0010021576
p1124
g685
sVlu0823381958
p1125
g59
sVlu0823380802
p1126
g468
sVfr0010536144
p1127
g752
sVfr0011046085
p1128
Vhttp://www.bnpparibas-ip.fr/investisseur-prive-particulier/fundsheet/marche-monetaire-eur/bnp-paribas-deposit-classic-c-fr0011046085
p1129
sVlu0950372838
p1130
g361
sVlu0823413074
p1131
g512
sVlu0823411029
p1132
g48
sVlu0089290844
p1133
g613
sVlu1104111114
p1134
g736
sVlu0823425086
p1135
g432
sVlu0251809090
p1136
g349
sVfr0007074356
p1137
Vhttp://www.bnpparibas-ip.fr/investisseur-prive-particulier/fundsheet/actions-internationales/icp-evolution-classique-h-fr0007074356
p1138
sVlu0406803063
p1139
g87
sVno0010668106
p1140
g774
sVlu1104111890
p1141
g962
sVlu0406803147
p1142
g87
sVlu1049896084
p1143
g543
sVfr0011501659
p1144
Vhttp://www.bnpparibas-ip.fr/investisseur-prive-particulier/fundsheet/marche-monetaire-eur/invest-monetaire-4-classic-c-fr0011501659
p1145
sVlu0823428346
p1146
g621
sVlu0823425243
p1147
g432
sVlu0823411375
p1148
g48
sVlu0823416416
p1149
g20
sVlu0265308063
p1150
g893
sVlu0828231075
p1151
g367
sVfr0007035365
p1152
g61
sVlu0823389266
p1153
g175
sVlu1049888651
p1154
g130
sVlu0107069048
p1155
g79
sVlu0823422141
p1156
g291
sVlu0265268689
p1157
g164
sVlu1291104062
p1158
Vhttp://www.bnpparibas-ip.fr/investisseur-prive-particulier/fundsheet/actions-americaines/bnp-paribas-easy-msci-north-america-ex-controversial-weapons-track-classic-c-lu1291103684
p1159
sVlu1291103684
p1160
g1159
sVfr0010028969
p1161
g198
sVlu0823390439
p1162
g71
sVlu0774755085
p1163
g441
sVlu0111549308
p1164
g40
sVfr0010925123
p1165
Vhttp://www.bnpparibas-ip.fr/investisseur-prive-particulier/fundsheet/produits-structures/bnp-paribas-europe-plus-2019-classic-c-fr0010925123
p1166
sVfr0010177527
p1167
Vhttp://www.bnpparibas-ip.fr/investisseur-prive-particulier/fundsheet/actions-internationales/camgestion-avenir-investissement-classic-c-fr0010177527
p1168
sVlu0774754435
p1169
Vhttp://www.bnpparibas-ip.fr/investisseur-prive-particulier/fundsheet/actions-europeennes/parworld-quant-equity-europe-guru-classic-c-lu0774754435
p1170
sVlu0879078136
p1171
g757
sVfr0013140571
p1172
Vhttp://www.bnpparibas-ip.fr/investisseur-prive-particulier/fundsheet/actions-zone-euro/theam-quant-equity-eurozone-income-defensive-j-c-fr0013140571
p1173
sVlu1056594317
p1174
g195
sVfr0012740934
p1175
Vhttp://www.bnpparibas-ip.fr/investisseur-prive-particulier/fundsheet/actions-emergentes/bnp-paribas-easy-next-11-ucits-etf-eur-c-c-fr0012739423
p1176
sVlu0089277312
p1177
g249
sVlu0823426308
p1178
g183
sVlu0823382253
p1179
g59
sVlu0531995693
p1180
g505
sVfr0010263475
p1181
g780
sVfr0007056312
p1182
Vhttp://www.bnpparibas-ip.fr/investisseur-prive-particulier/fundsheet/diversifie-monde/gf-patrimoine-convictions-classique-c-fr0007056312
p1183
sVlu1104112609
p1184
g48
sVlu0823419436
p1185
g973
sVfr0012739928
p1186
g1176
sVlu0930019079
p1187
g222
sVfr0011550177
p1188
g485
sVlu0111464060
p1189
g249
sVlu0167239168
p1190
g327
sVlu0107058785
p1191
g267
sVlu0823385272
p1192
g244
sVfr0000421802
p1193
Vhttp://www.bnpparibas-ip.fr/investisseur-prive-particulier/fundsheet/diversifie-monde/carrefour-selection-classique-h-fr0000421802
p1194
sVlu0176506888
p1195
g382
sVfr0010116574
p1196
g218
sVlu0282388783
p1197
g550
sVlu1049889030
p1198
g130
sVlu0531757911
p1199
g382
sVlu0282274421
p1200
g249
sVlu0249367086
p1201
g258
sVlu1104113326
p1202
g100
sVfr0010147512
p1203
g415
sVlu0823407936
p1204
g251
sVlu1481201611
p1205
g899
sVfr0010133892
p1206
Vhttp://www.bnpparibas-ip.fr/investisseur-prive-particulier/fundsheet/obligations-internationales/bnp-paribas-obli-monde-classic-c-fr0010133892
p1207
sVfr0007020094
p1208
Vhttp://www.bnpparibas-ip.fr/investisseur-prive-particulier/fundsheet/marche-monetaire-eur/invest-monetaire-3-classic-c-fr0007020094
p1209
sVlu0038743380
p1210
g102
sVlu1049884742
p1211
g546
sVlu1120431108
p1212
g517
sVlu0245286934
p1213
g363
sVfr0011351717
p1214
Vhttp://www.bnpparibas-ip.fr/investisseur-prive-particulier/fundsheet/diversifie-monde/bnp-paribas-retraite-responsable-2031-2033-p-c-fr0011351717
p1215
sVfr0010209916
p1216
g824
sVlu0890553851
p1217
g957
sVlu0823434070
p1218
g75
sVlu0281906387
p1219
g254
sVlu1165136505
p1220
g36
sVlu0236672407
p1221
Vhttp://www.bnpparibas-ip.fr/investisseur-prive-particulier/fundsheet/diversifie-monde/bnp-paribas-quam-fund-low-vol-classic-c-lu0236672407
p1222
sVlu0012181748
p1223
g349
sVlu1481201298
p1224
g997
sVfr0011628288
p1225
g111
sVlu0159093748
p1226
g941
sVlu0823397103
p1227
g462
sVlu0111460589
p1228
g937
sVfr0011774686
p1229
Vhttp://www.bnpparibas-ip.fr/investisseur-prive-particulier/fundsheet/obligations-europeennes/bnp-paribas-obli-entreprises-classic-c-fr0011774686
p1230
sVlu0265292556
p1231
g812
sVlu1291101126
p1232
g642
sVlu0823408157
p1233
g251
sVlu0956005572
p1234
g122
sVfr0011585546
p1235
g106
sVlu0823411532
p1236
g48
sVfr0011175645
p1237
g218
sVlu1022392291
p1238
g460
sVlu0823411961
p1239
g166
sVlu1481201538
p1240
g226
sVlu1481200308
p1241
Vhttp://www.bnpparibas-ip.fr/investisseur-prive-particulier/fundsheet/obligations-internationales/bnp-paribas-easy-barclays-us-treasury-ucits-etf-c-lu1481200308
p1242
sVfr0012088870
p1243
Vhttp://www.bnpparibas-ip.fr/investisseur-prive-particulier/fundsheet/diversifie-monde/bnp-paribas-convictions-a-c-fr0012088870
p1244
sVlu0270761579
p1245
g114
sVlu0132152199
p1246
g941
sVfr0011210129
p1247
Vhttp://www.bnpparibas-ip.fr/investisseur-prive-particulier/fundsheet/diversifie-monde/bnp-paribas-selection-flexible-classic-c-fr0011210129
p1248
sVlu0823407001
p1249
g480
sVfr0010168351
p1250
Vhttp://www.bnpparibas-ip.fr/investisseur-prive-particulier/fundsheet/actions-europeennes/camgestion-situations-sp-ciales-classique-c-fr0010168351
p1251
sVlu0069970662
p1252
g267
sVfr0010732693
p1253
Vhttp://www.bnpparibas-ip.fr/investisseur-prive-particulier/fundsheet/portefeuilles-diversifies-europe/camgestion-europe-offensif-classique-c-fr0010732693
p1254
sVlu0831546592
p1255
Vhttp://www.bnpparibas-ip.fr/investisseur-prive-particulier/fundsheet/actions-internationales/bnp-paribas-l1-equity-world-aqua-classic-c-lu0831546592
p1256
sVlu1049895193
p1257
g543
sVlu0823404594
p1258
g297
sVlu1353183616
p1259
g865
sVlu1291108642
p1260
g299
sVlu0265267285
p1261
g254
sVlu0423950210
p1262
g120
sVlu0177332730
p1263
g355
sVfr0012169860
p1264
g653
sVfr0012459378
p1265
Vhttp://www.bnpparibas-ip.fr/investisseur-prive-particulier/fundsheet/matieres-premieres/theam-quant-raw-materials-income-i-usd-c-fr0012902278
p1266
sVlu0177332227
p1267
g355
sVlu0823415442
p1268
g234
sVfr0011829225
p1269
g740
sVlu0823429823
p1270
g98
sVlu0823434401
p1271
g957
sVfr0011222439
p1272
g768
sVlu0823434237
p1273
g957
sVlu0823416929
p1274
g417
sVlu1291105895
p1275
g683
sVlu0111547609
p1276
g524
sVlu0158989177
p1277
g220
sVfr0010703355
p1278
Vhttp://www.bnpparibas-ip.fr/investisseur-prive-particulier/fundsheet/actions-europeennes/maif-investissement-responsable-europe-p-c-fr0010703355
p1279
sVlu0823438733
p1280
g42
sVlu0823450514
p1281
g262
sVfr0011150010
p1282
Vhttp://www.bnpparibas-ip.fr/investisseur-prive-particulier/fundsheet/produits-structures/protected-target-alpha-fund-a-c-fr0011150010
p1283
sVfr0011482694
p1284
g935
sVlu0547771328
p1285
g357
sVlu0823426993
p1286
g183
sVfr0000977563
p1287
Vhttp://www.bnpparibas-ip.fr/investisseur-prive-particulier/fundsheet/diversifie-monde/selection-dynamique-international-classic-c-fr0000977563
p1288
sVlu0823420954
p1289
g973
sVlu0012182399
p1290
g79
sVlu0225846426
p1291
g236
sVfr0012704856
p1292
Vhttp://www.bnpparibas-ip.fr/investisseur-prive-particulier/fundsheet/obligations-europeennes/bnp-paribas-lcr-1-classic-c-fr0012704856
p1293
sVlu0823380638
p1294
g524
sVfr0007046123
p1295
Vhttp://www.bnpparibas-ip.fr/investisseur-prive-particulier/fundsheet/diversifie-monde/gestion-croissance-classic-c-fr0007046123
p1296
sVlu1291100409
p1297
g1054
sVfr0007448568
p1298
Vhttp://www.bnpparibas-ip.fr/investisseur-prive-particulier/fundsheet/autres-actifs-diversifies-pays-developpes/fracom-classique-d-fr0007448568
p1299
sVfr0010102095
p1300
Vhttp://www.bnpparibas-ip.fr/investisseur-prive-particulier/fundsheet/actions-europeennes/camgestion-rendactis-classique-h-fr0010102095
p1301
sVlu0107087610
p1302
g304
sVlu1291100151
p1303
g1054
sVfr0012443190
p1304
g264
sVlu1022401118
p1305
g451
sVlu0265288877
p1306
g893
sVlu0823401905
p1307
g340
sVlu0823418545
p1308
g147
sVlu0107072935
p1309
g528
sVfr0013146347
p1310
Vhttp://www.bnpparibas-ip.fr/investisseur-prive-particulier/fundsheet/obligations-internationales/theam-quant-fi-high-vol-super-x-c-fr0013146347
p1311
sVfr0012598530
p1312
g14
sVfr0007068093
p1313
Vhttp://www.bnpparibas-ip.fr/investisseur-prive-particulier/fundsheet/actions-europeennes/bnp-paribas-easy-stoxx-europe-600-health-care-ucits-etf-classique-c-fr0007068093
p1314
sVlu0131210360
p1315
g796
sVlu1104115610
p1316
g591
sVlu1022400656
p1317
g451
sVlu0823378905
p1318
g46
sVbe0146934766
p1319
g1029
sVlu0012181318
p1320
g338
sVfr0013217767
p1321
g1173
sVlu1303481904
p1322
Vhttp://www.bnpparibas-ip.fr/investisseur-prive-particulier/fundsheet/actions-internationales/bnp-paribas-l1-usa-classic-c-lu1303481904
p1323
sVfr0012740975
p1324
g347
sVlu1104116345
p1325
g591
sVlu1303480849
p1326
g766
sVfr0013127156
p1327
g270
sVlu0531998010
p1328
g759
sVlu1353195891
p1329
Vhttp://www.bnpparibas-ip.fr/investisseur-prive-particulier/fundsheet/actions-europeennes/theam-quant-equity-europe-climate-care-c-capitalisationlu1353195891
p1330
sVlu0823407266
p1331
g480
sVlu1104116261
p1332
g591
sVlu0087047162
p1333
g759
sVlu1049891796
p1334
g216
sVfr0011314285
p1335
g313
sVfr0010077230
p1336
Vhttp://www.bnpparibas-ip.fr/investisseur-prive-particulier/fundsheet/produits-structures/bnp-paribas-actions-monde-protege-classic-c-fr0010077230
p1337
sVlu0012181664
p1338
g349
sVfr0010155226
p1339
Vhttp://www.bnpparibas-ip.fr/investisseur-prive-particulier/fundsheet/actions-europeennes/camgestion-actions-france-classique-c-fr0010155226
p1340
sVlu1056593855
p1341
g90
sVfr0010712745
p1342
g387
sVlu0823420525
p1343
g973
sVfr0012686046
p1344
g379
sVlu0925122581
p1345
g561
sVlu1291108998
p1346
g299
sVfr0012740983
p1347
g347
sVlu0270761819
p1348
g18
sVlu1080341495
p1349
g497
sVlu0823382840
p1350
g660
sVfr0013176336
p1351
g323
sVlu0823387138
p1352
g244
sVlu0749572268
p1353
Vhttp://www.bnpparibas-ip.fr/investisseur-prive-particulier/fundsheet/obligations-europeennes/bnp-paribas-flexi-i-bond-euro-focus-corporate-classic-c-lu0749572268
p1354
sVlu0823427025
p1355
g183
sVlu1291097340
p1356
g618
sVfr0012892453
p1357
Vhttp://www.bnpparibas-ip.fr/investisseur-prive-particulier/fundsheet/produits-structures/athena-decembre-2023-classic-c-fr0012892453
p1358
sVfr0007031539
p1359
Vhttp://www.bnpparibas-ip.fr/investisseur-prive-particulier/fundsheet/diversifie-monde/multigerants-patrimoine-classique-c-fr0007031539
p1360
sVfr0007048160
p1361
Vhttp://www.bnpparibas-ip.fr/investisseur-prive-particulier/fundsheet/diversifie-monde/selection-equilibre-europe-classic-c-fr0007048160
p1362
sVlu0823430755
p1363
g98
sVlu0823435473
p1364
g957
sVlu0823444111
p1365
g770
sVlu1049884312
p1366
g546
sVfr0010217588
p1367
Vhttp://www.bnpparibas-ip.fr/investisseur-prive-particulier/fundsheet/actions-europeennes/camgestion-euro-mid-cap-classic-c-fr0010217588
p1368
sVfr0011572502
p1369
Vhttp://www.bnpparibas-ip.fr/investisseur-prive-particulier/fundsheet/diversifie-monde/fundquest-patrimoine-classic-c-fr0010986497
p1370
sVlu0251807987
p1371
g267
sVfr0013230216
p1372
g801
sVfr0012649275
p1373
Vhttp://www.bnpparibas-ip.fr/investisseur-prive-particulier/fundsheet/produits-structures/athena-aout-2023-classic-c-fr0012649275
p1374
sVlu0823421846
p1375
g291
sVfr0010250050
p1376
g628
sVlu1120436677
p1377
g344
sVlu0823427611
p1378
g520
sVfr0011693100
p1379
g111
sVfr0011534668
p1380
Vhttp://www.bnpparibas-ip.fr/investisseur-prive-particulier/fundsheet/obligations-europeennes/bnp-paribas-fixed-income-moderate-classic-c-fr0011534668
p1381
sVfr0012739423
p1382
g1176
sVfr0010376822
p1383
Vhttp://www.bnpparibas-ip.fr/investisseur-prive-particulier/fundsheet/diversifie-monde/fundquest-dynamic-classic-c-fr0010376822
p1384
sVfr0010378570
p1385
Vhttp://www.bnpparibas-ip.fr/investisseur-prive-particulier/fundsheet/actions-internationales/bnp-paribas-easy-dj-islamic-market-titans-100-ucits-etf-classique-h-fr0010378570
p1386
sVfr0010018341
p1387
Vhttp://www.bnpparibas-ip.fr/investisseur-prive-particulier/fundsheet/actions-europeennes/bnp-paribas-easy-stoxx-europe-600-construction-materials-ucits-etf-classique-c-fr0010018341
p1388
sVfr0007027990
p1389
Vhttp://www.bnpparibas-ip.fr/investisseur-prive-particulier/fundsheet/obligations-europeennes/natio-fonds-horizon-catholique-classique-c-fr0007027990
p1390
sVlu0925123555
p1391
g85
sVfr0010115410
p1392
g799
sVfr0010713610
p1393
g6
sVlu0154245756
p1394
g561
sVlu0265308576
p1395
g812
sVlu0930018691
p1396
g1094
sVlu0930019749
p1397
g675
sVlu0823434583
p1398
g957
sVlu0111493325
p1399
g224
sVlu0111491469
p1400
g224
sVlu0212196652
p1401
g561
sVlu0132151621
p1402
g941
sVlu0010001013
p1403
g18
sVlu0930020838
p1404
g448
sVlu0347711540
p1405
g256
sVfr0010576769
p1406
g389
sVlu0823411888
p1407
g166
sVlu0823432884
p1408
g153
sVlu0347712274
p1409
g256
sVlu0823413827
p1410
g512
sVfr0007068069
p1411
Vhttp://www.bnpparibas-ip.fr/investisseur-prive-particulier/fundsheet/actions-europeennes/bnp-paribas-easy-stoxx-europe-600-technology-ucits-etf-classique-c-fr0007068069
p1412
sVfr0010125880
p1413
g1118
sVfr0007031588
p1414
Vhttp://www.bnpparibas-ip.fr/investisseur-prive-particulier/fundsheet/diversifie-monde/multigerants-equilibre-classique-c-fr0007031588
p1415
sVlu0282389674
p1416
g550
sVfr0012902278
p1417
g1266
sVlu0131212812
p1418
g796
sVfr0010616177
p1419
g782
sVfr0010130773
p1420
g1062
sVlu0236673397
p1421
g187
sVfr0010146530
p1422
g415
sVlu0950373216
p1423
g361
sVlu0107059080
p1424
g185
sVlu0087045117
p1425
g616
sVlu0265266980
p1426
g254
sVfr0010986497
p1427
g1370
sVlu0325599487
p1428
g8
sVlu0823424279
p1429
g118
sVlu0823379622
p1430
g46
sVlu1235101356
p1431
g424
sVfr0013058021
p1432
Vhttp://www.bnpparibas-ip.fr/investisseur-prive-particulier/fundsheet/actions-emergentes/cardif-countries-convictions-classic-h-fr0013058021
p1433
sVlu0089276934
p1434
g249
sVlu1291104575
p1435
g1159
sVfr0012459386
p1436
g1266
sVfr0010018333
p1437
Vhttp://www.bnpparibas-ip.fr/investisseur-prive-particulier/fundsheet/actions-europeennes/bnp-paribas-easy-stoxx-europe-600-automobiles-parts-ucits-etf-classique-c-fr0010018333
p1438
sVfr0010112094
p1439
g455
sVfr0011314335
p1440
g284
sVfr0010052266
p1441
Vhttp://www.bnpparibas-ip.fr/investisseur-prive-particulier/fundsheet/obligations-convertibles-europeennes/perseis-avantage-convertibles-classic-c-fr0010052266
p1442
sVlu1165137495
p1443
g50
sVfr0011550185
p1444
g485
sVlu1049895862
p1445
g543
sVlu1056591727
p1446
g556
sVfr0007449327
p1447
Vhttp://www.bnpparibas-ip.fr/investisseur-prive-particulier/fundsheet/marche-monetaire-eur/invest-monetaire-2-classic-c-fr0007449327
p1448
sVlu0823414635
p1449
g234
sVlu0283510112
p1450
g185
sVlu0012186622
p1451
g937
sVlu0823413660
p1452
g512
sVlu0823404917
p1453
g297
sVfr0012208742
p1454
Vhttp://www.bnpparibas-ip.fr/investisseur-prive-particulier/fundsheet/produits-structures/c-quadrat-nachhaltigkeit-garant-80-a-eur-c-fr0012208742
p1455
sVlu1165135879
p1456
g918
sVfr0000980120
p1457
Vhttp://www.bnpparibas-ip.fr/investisseur-prive-particulier/fundsheet/actions-europeennes/bnp-paribas-floreal-100-classic-c-fr0000980120
p1458
sVlu0099624925
p1459
g749
sVlu1370930734
p1460
Vhttp://www.bnpparibas-ip.fr/investisseur-prive-particulier/fundsheet/actions-europeennes/bnp-paribas-l1-equity-europe-defi-classic-c-lu1370930734
p1461
sVfr0010077396
p1462
g466
sVlu0360646763
p1463
g1027
sVlu0212178676
p1464
g736
sVlu0823429153
p1465
g621
sVlu0823389936
p1466
g71
sVlu0265291665
p1467
g812
sVfr0012591600
p1468
g989
sVlu0823411706
p1469
g166
sVlu0823412696
p1470
g166
sVlu1377382285
p1471
g334
sVfr0010652743
p1472
Vhttp://www.bnpparibas-ip.fr/investisseur-prive-particulier/fundsheet/obligations-europeennes/camgestion-obligations-europe-classic-c-fr0010652743
p1473
sVlu0823387211
p1474
g244
sVlu0823428429
p1475
g621
sVfr0012169852
p1476
g653
sVlu0823400097
p1477
g207
sVlu0102023610
p1478
g52
sVlu1353195974
p1479
g1330
sVlu0081706904
p1480
g572
sVfr0013049426
p1481
Vhttp://www.bnpparibas-ip.fr/investisseur-prive-particulier/fundsheet/diversifie-monde/bnp-paribas-retraite-responsable-2034-2036-p-c-fr0013049426
p1482
sVlu0043962355
p1483
g38
sVfr0012892461
p1484
Vhttp://www.bnpparibas-ip.fr/investisseur-prive-particulier/fundsheet/produits-structures/athena-semi-airbag-decembre-2023-classic-c-fr0012892461
p1485
sVlu0107087297
p1486
g749
sVlu0212180490
p1487
g736
sVfr0010028902
p1488
g1007
sVfr0007496047
p1489
Vhttp://www.bnpparibas-ip.fr/investisseur-prive-particulier/fundsheet/marche-monetaire-eur/bnp-paribas-cash-invest-classic-c-fr0007496047
p1490
sVlu0823407423
p1491
g480
sVlu0823417810
p1492
g147
sVlu0132152439
p1493
g168
sVlu1120436321
p1494
g344
sVlu0823403356
p1495
g295
sVlu0823381446
p1496
g468
sVlu1353185314
p1497
g865
sVlu0265268762
p1498
g164
sVfr0012688430
p1499
g1099
sVfr0010174425
p1500
Vhttp://www.bnpparibas-ip.fr/investisseur-prive-particulier/fundsheet/obligations-europeennes/bnp-paribas-1-an-protection-99-classic-c-fr0010174425
p1501
sVlu0823388615
p1502
g175
sVlu1150259296
p1503
g413
sVfr0011742527
p1504
g1065
sVlu1080341818
p1505
g497
sVfr0011079524
p1506
Vhttp://www.bnpparibas-ip.fr/investisseur-prive-particulier/fundsheet/produits-structures/bnp-paribas-gestion-active-2-classic-c-fr0011079524
p1507
sVlu1104108243
p1508
g56
sVfr0011142074
p1509
Vhttp://www.bnpparibas-ip.fr/investisseur-prive-particulier/fundsheet/produits-structures/bnp-paribas-gestion-active-3-classic-c-fr0011142074
p1510
sVlu0823424782
p1511
g432
sVlu0823438220
p1512
g42
sVlu0749572425
p1513
g1354
sVfr0013073780
p1514
Vhttp://www.bnpparibas-ip.fr/investisseur-prive-particulier/fundsheet/produits-structures/croissance-europe-2022-classic-c-fr0013073780
p1515
sVfr0010912873
p1516
g10
sVlu0531552510
p1517
g443
sVlu0823408744
p1518
g251
s.