(dp0
Vlu1481201025
p1
Vhttp://www.bnpparibas-ip.fr/investisseur-prive-particulier/fundsheet/actions-europeennes/bnp-paribas-easy-equity-low-vol-europe-ucits-etf-c-lu1377381717
p2
sVlu0012182712
p3
Vhttp://www.bnpparibas-ip.fr/investisseur-prive-particulier/fundsheet/autres-fonds-taux-pays-developpes/parvest-bond-jpy-classic-c-lu0012182712
p4
sVfr0010714238
p5
Vhttp://www.bnpparibas-ip.fr/investisseur-prive-particulier/fundsheet/actions-internationales/topix-theam-easy-ucits-etf-eur-c-fr0010713610
p6
sVlu0325598323
p7
Vhttp://www.bnpparibas-ip.fr/investisseur-prive-particulier/fundsheet/obligations-internationales/parvest-enhanced-cash-6-months-classic-c-lu0325598166
p8
sVfr0010722272
p9
Vhttp://www.bnpparibas-ip.fr/investisseur-prive-particulier/fundsheet/actions-internationales/theam-euro-long-dividends-a-eur-c-fr0010722272
p10
sVlu0212187404
p11
Vhttp://www.bnpparibas-ip.fr/investisseur-prive-particulier/fundsheet/actions-europeennes/parvest-sustainable-equity-europe-classic-c-lu0212189012
p12
sVfr0010997825
p13
Vhttp://www.bnpparibas-ip.fr/investisseur-prive-particulier/fundsheet/diversifie-monde/fundquest-optimal-selection-classic-c-fr0010997825
p14
sVlu0172351255
p15
Vhttp://www.bnpparibas-ip.fr/investisseur-prive-particulier/fundsheet/obligations-internationales/bnp-paribas-l1-bond-euro-premium-classic-c-lu0172350877
p16
sVlu0531558558
p17
Vhttp://www.bnpparibas-ip.fr/investisseur-prive-particulier/fundsheet/obligations-internationales/bnp-paribas-l1-bond-europe-plus-classic-c-lu0010000809
p18
sVlu0823416333
p19
Vhttp://www.bnpparibas-ip.fr/investisseur-prive-particulier/fundsheet/actions-internationales/parvest-equity-world-finance-classic-c-lu0823415871
p20
sVfr0012098499
p21
Vhttp://www.bnpparibas-ip.fr/investisseur-prive-particulier/fundsheet/actions-emergentes/cardif-bnpp-ip-equity-frontier-markets-classic-c-fr0012098499
p22
sVlu0283511433
p23
Vhttp://www.bnpparibas-ip.fr/investisseur-prive-particulier/fundsheet/immobilier-europeen/parvest-real-estate-securities-europe-classic-c-lu0283511359
p24
sVfr0011362102
p25
Vhttp://www.bnpparibas-ip.fr/investisseur-prive-particulier/fundsheet/marche-monetaire-usd/bnp-paribas-deposit-usd-classic-c-fr0011362102
p26
sVlu0203243844
p27
Vhttp://www.bnpparibas-ip.fr/investisseur-prive-particulier/fundsheet/matieres-premieres/s-p-gsci-energy-metals-capped-component-35-20-theam-easy-ucits-etf-a-usd-c-lu0203243844
p28
sVfr0007016449
p29
Vhttp://www.bnpparibas-ip.fr/investisseur-prive-particulier/fundsheet/actions-internationales/cpi-performance-classique-c-fr0007016449
p30
sVlu0823443733
p31
Vhttp://www.bnpparibas-ip.fr/investisseur-prive-particulier/fundsheet/immobilier-monde/parvest-real-estate-securities-pacific-classic-c-lu0823443220
p32
sVfr0011355528
p33
Vhttp://www.bnpparibas-ip.fr/investisseur-prive-particulier/fundsheet/actions-americaines/bnp-paribas-indice-amerique-du-nord-classic-c-fr0011355528
p34
sVlu1165136174
p35
Vhttp://www.bnpparibas-ip.fr/investisseur-prive-particulier/fundsheet/actions-internationales/parvest-human-development-classic-c-lu1165136174
p36
sVlu0270761140
p37
Vhttp://www.bnpparibas-ip.fr/investisseur-prive-particulier/fundsheet/actions-europeennes/bnp-paribas-l1-equity-netherlands-classic-c-lu0043962355
p38
sVlu0194437363
p39
Vhttp://www.bnpparibas-ip.fr/investisseur-prive-particulier/fundsheet/obligations-americaines/parvest-bond-usa-high-yield-classic-c-lu0111549480
p40
sVlu0823438816
p41
Vhttp://www.bnpparibas-ip.fr/investisseur-prive-particulier/fundsheet/actions-internationales/parvest-green-tigers-classic-c-lu0823437925
p42
sVfr0007085436
p43
Vhttp://www.bnpparibas-ip.fr/investisseur-prive-particulier/fundsheet/portefeuilles-diversifies-europe/camgestion-club-patrimoine-classic-c-fr0007085436
p44
sVlu0823379382
p45
Vhttp://www.bnpparibas-ip.fr/investisseur-prive-particulier/fundsheet/produits-de-taux-emergents/parvest-bond-asia-ex-japan-classic-eur-c-lu0823378905
p46
sVlu0823410997
p47
Vhttp://www.bnpparibas-ip.fr/investisseur-prive-particulier/fundsheet/actions-americaines/parvest-equity-usa-small-cap-classic-eur-c-lu0823410724
p48
sVlu1165137578
p49
Vhttp://www.bnpparibas-ip.fr/investisseur-prive-particulier/fundsheet/actions-internationales/parvest-smart-food-classic-c-lu1165137149
p50
sVlu0086913042
p51
Vhttp://www.bnpparibas-ip.fr/investisseur-prive-particulier/fundsheet/obligations-convertibles-europeennes/parvest-convertible-bond-europe-classic-c-lu0086913042
p52
sVlu0212177199
p53
Vhttp://www.bnpparibas-ip.fr/investisseur-prive-particulier/fundsheet/obligations-europeennes/parvest-bond-euro-short-term-classic-c-lu0212175227
p54
sVlu1104108326
p55
Vhttp://www.bnpparibas-ip.fr/investisseur-prive-particulier/fundsheet/obligations-internationales/parvest-bond-world-income-classic-c-lu1104108243
p56
sVlu0283511359
p57
g24
sVlu0823381875
p58
Vhttp://www.bnpparibas-ip.fr/investisseur-prive-particulier/fundsheet/obligations-europeennes/parvest-bond-euro-long-term-classic-c-lu0823381875
p59
sVfr0010478727
p60
Vhttp://www.bnpparibas-ip.fr/investisseur-prive-particulier/fundsheet/obligations-internationales/bnp-paribas-dynamique-6-mois-classic-c-fr0007035365
p61
sVfr0012538122
p62
Vhttp://www.bnpparibas-ip.fr/investisseur-prive-particulier/fundsheet/actions-europeennes/bnp-paribas-strategie-privee-actions-europe-classic-c-fr0012538122
p63
sVlu0930019665
p64
Vhttp://www.bnpparibas-ip.fr/investisseur-prive-particulier/fundsheet/produits-structures/bnp-paribas-plan-easy-future-2026-classic-c-lu0930019582
p65
sVlu0823382170
p66
g59
sVlu0111482989
p67
Vhttp://www.bnpparibas-ip.fr/investisseur-prive-particulier/fundsheet/autres-fonds-actions-pays-developpes/parvest-equity-australia-classic-eur-c-lu0251810007
p68
sVlu0823390355
p69
Vhttp://www.bnpparibas-ip.fr/investisseur-prive-particulier/fundsheet/produits-de-taux-emergents/parvest-bond-best-selection-world-emerging-classic-c-lu0823389852
p70
sVfr0010146837
p71
Vhttp://www.bnpparibas-ip.fr/investisseur-prive-particulier/fundsheet/diversifie-monde/bnp-paribas-retraite-responsable-5-p-c-fr0010146837
p72
sVlu0265293521
p73
Vhttp://www.bnpparibas-ip.fr/investisseur-prive-particulier/fundsheet/actions-emergentes/parvest-equity-turkey-classic-c-lu0265293521
p74
sVfr0007453477
p75
Vhttp://www.bnpparibas-ip.fr/investisseur-prive-particulier/fundsheet/diversifie-monde/rentabilite-mobiliere-classique-c-fr0007453477
p76
sVlu0012182126
p77
Vhttp://www.bnpparibas-ip.fr/investisseur-prive-particulier/fundsheet/obligations-americaines/parvest-bond-usd-short-duration-classic-c-lu0012182399
p78
sVfr0010948745
p79
Vhttp://www.bnpparibas-ip.fr/investisseur-prive-particulier/fundsheet/produits-structures/everglades-pea-classic-c-fr0010948745
p80
sVfr0010093872
p81
Vhttp://www.bnpparibas-ip.fr/investisseur-prive-particulier/fundsheet/obligations-europeennes/bnp-paribas-obli-revenus-classic-h-fr0010093872
p82
sVlu0925123043
p83
Vhttp://www.bnpparibas-ip.fr/investisseur-prive-particulier/fundsheet/actions-internationales/parvest-equity-world-emerging-low-volatility-classic-eur-c-lu0925123043
p84
sVlu0406802339
p85
Vhttp://www.bnpparibas-ip.fr/investisseur-prive-particulier/fundsheet/actions-internationales/parvest-climate-impact-classic-c-lu0406802339
p86
sVlu0823380125
p87
g46
sVlu1056593772
p88
Vhttp://www.bnpparibas-ip.fr/investisseur-prive-particulier/fundsheet/actions-internationales/bnp-paribas-l1-equity-world-guru-classic-eur-c-lu1056593699
p89
sVlu0325599644
p90
g8
sVfr0011653781
p91
Vhttp://www.bnpparibas-ip.fr/investisseur-prive-particulier/fundsheet/produits-structures/isis-europe-smallcap-2020-classic-c-fr0011653781
p92
sVlu0251280102
p93
Vhttp://www.bnpparibas-ip.fr/investisseur-prive-particulier/fundsheet/produits-de-taux-emergents/bnp-paribas-l1-bond-world-emerging-local-classic-c-lu0907251499
p94
sVlu0823430672
p95
Vhttp://www.bnpparibas-ip.fr/investisseur-prive-particulier/fundsheet/actions-emergentes/parvest-equity-indonesia-classic-eur-c-lu0823429823
p96
sVlu1104113599
p97
Vhttp://www.bnpparibas-ip.fr/investisseur-prive-particulier/fundsheet/actions-emergentes/parvest-equity-world-emerging-small-cap-classic-c-lu1104113243
p98
sVlu1104114993
p99
Vhttp://www.bnpparibas-ip.fr/investisseur-prive-particulier/fundsheet/obligations-internationales/parvest-bond-absolute-return-v700-classic-c-lu1104114647
p100
sVlu1022403833
p101
Vhttp://www.bnpparibas-ip.fr/investisseur-prive-particulier/fundsheet/obligations-europeennes/parvest-covered-bond-euro-classic-c-lu1022403676
p102
sVfr0011585553
p103
Vhttp://www.bnpparibas-ip.fr/investisseur-prive-particulier/fundsheet/obligations-internationales/bnp-paribas-obliselect-global-high-yield-2019-classic-c-fr0011585546
p104
sVfr0012649283
p105
Vhttp://www.bnpparibas-ip.fr/investisseur-prive-particulier/fundsheet/produits-structures/athena-semi-airbag-aout-2023-classic-c-fr0012649283
p106
sVlu0823443220
p107
g32
sVfr0011011261
p108
Vhttp://www.bnpparibas-ip.fr/investisseur-prive-particulier/fundsheet/actions-europeennes/bnp-paribas-actions-pme-classic-c-fr0011693100
p109
sVlu1056593699
p110
g89
sVlu0011928255
p111
Vhttp://www.bnpparibas-ip.fr/investisseur-prive-particulier/fundsheet/obligations-internationales/bnp-paribas-l1-bond-world-plus-classic-c-lu0011928255
p112
sVfr0011046739
p113
Vhttp://www.bnpparibas-ip.fr/investisseur-prive-particulier/fundsheet/obligations-europeennes/bnp-paribas-obli-responsable-classic-c-fr0010076893
p114
sVlu0823424352
p115
Vhttp://www.bnpparibas-ip.fr/investisseur-prive-particulier/fundsheet/actions-internationales/parvest-equity-world-telecom-classic-c-lu0823422810
p116
sVlu0423950053
p117
Vhttp://www.bnpparibas-ip.fr/investisseur-prive-particulier/fundsheet/marche-monetaire-eur/bnp-paribas-insticash-money-3m-eur-classic-c-lu0423950210
p118
sVlu0956005226
p119
Vhttp://www.bnpparibas-ip.fr/investisseur-prive-particulier/fundsheet/actions-internationales/parvest-equity-best-selection-world-classic-c-lu0956005226
p120
sVlu1165136687
p121
g36
sVlu1165137222
p122
g50
sVfr0012558815
p123
Vhttp://www.bnpparibas-ip.fr/investisseur-prive-particulier/fundsheet/actions-internationales/bnp-paribas-actions-emergentes-classic-c-fr0012558815
p124
sVfr0011034586
p125
Vhttp://www.bnpparibas-ip.fr/investisseur-prive-particulier/fundsheet/produits-structures/bnp-paribas-gestion-active-classic-c-fr0011034586
p126
sVlu1049888735
p127
Vhttp://www.bnpparibas-ip.fr/investisseur-prive-particulier/fundsheet/actions-americaines/theam-quant-equity-us-guru-c-eur-c-lu1049888735
p128
sVfr0000174526
p129
Vhttp://www.bnpparibas-ip.fr/investisseur-prive-particulier/fundsheet/diversifie-monde/bnp-paribas-retraite-responsable-75-p-c-fr0010146894
p130
sVfr0011683655
p131
Vhttp://www.bnpparibas-ip.fr/investisseur-prive-particulier/fundsheet/produits-structures/bnp-paribas-thique-europe-2018-pea-classic-c-fr0011683655
p132
sVfr0010894824
p133
Vhttp://www.bnpparibas-ip.fr/investisseur-prive-particulier/fundsheet/obligations-europeennes/bnp-paribas-obli-pays-garantie-2018-classic-c-fr0010894824
p134
sVlu0111550736
p135
g40
sVfr0010670661
p136
Vhttp://www.bnpparibas-ip.fr/investisseur-prive-particulier/fundsheet/obligations-europeennes/cortal-consors-open-court-terme-classic-c-fr0010670653
p137
sVfr0010156216
p138
Vhttp://www.bnpparibas-ip.fr/investisseur-prive-particulier/fundsheet/immobilier-monde/bnp-paribas-immobilier-responsable-classic-c-fr0010156216
p139
sVlu0154361405
p140
Vhttp://www.bnpparibas-ip.fr/investisseur-prive-particulier/fundsheet/produits-structures/parvest-step-90-euro-classic-c-lu0154361405
p141
sVlu1235110779
p142
Vhttp://www.bnpparibas-ip.fr/investisseur-prive-particulier/fundsheet/actions-emergentes/theam-quant-equity-asia-guru-c-c-lu1235110779
p143
sVlu0823417901
p144
Vhttp://www.bnpparibas-ip.fr/investisseur-prive-particulier/fundsheet/actions-internationales/parvest-equity-world-low-volatility-classic-c-lu0823417810
p145
sVlu0823391676
p146
Vhttp://www.bnpparibas-ip.fr/investisseur-prive-particulier/fundsheet/obligations-internationales/parvest-bond-world-classic-c-lu0823391676
p147
sVfr0011594134
p148
Vhttp://www.bnpparibas-ip.fr/investisseur-prive-particulier/fundsheet/diversifie-monde/bnp-paribas-floreal-70-classic-c-fr0011594134
p149
sVlu0823432611
p150
Vhttp://www.bnpparibas-ip.fr/investisseur-prive-particulier/fundsheet/actions-emergentes/parvest-equity-russia-classic-c-lu0823431720
p151
sVfr0010077354
p152
Vhttp://www.bnpparibas-ip.fr/investisseur-prive-particulier/fundsheet/obligations-europeennes/bnp-paribas-obli-inflation-classic-c-fr0010077354
p153
sVfr0010112615
p154
Vhttp://www.bnpparibas-ip.fr/investisseur-prive-particulier/fundsheet/obligations-europeennes/bnp-paribas-obli-moyen-terme-classic-c-fr0010112615
p155
sVfr0011617737
p156
Vhttp://www.bnpparibas-ip.fr/investisseur-prive-particulier/fundsheet/obligations-europeennes/bnp-paribas-advanced-treasury-classic-c-fr0011617729
p157
sVlu1291107594
p158
Vhttp://www.bnpparibas-ip.fr/investisseur-prive-particulier/fundsheet/actions-europeennes/bnp-paribas-easy-msci-uk-ex-controversial-weapons-track-classic-c-lu1291107248
p159
sVlu1104113672
p160
g98
sVlu0282880003
p161
Vhttp://www.bnpparibas-ip.fr/investisseur-prive-particulier/fundsheet/actions-emergentes/parvest-equity-russia-opportunities-classic-eur-c-lu0282880003
p162
sVlu0823412266
p163
Vhttp://www.bnpparibas-ip.fr/investisseur-prive-particulier/fundsheet/actions-internationales/parvest-equity-world-consumer-durables-classic-c-lu0823411706
p164
sVlu0159092427
p165
Vhttp://www.bnpparibas-ip.fr/investisseur-prive-particulier/fundsheet/diversifie-monde/bnp-paribas-l1-diversified-world-growth-classic-c-lu0132152439
p166
sVlu0823422810
p167
g116
sVlu1104108839
p168
g56
sVfr0010146787
p169
Vhttp://www.bnpparibas-ip.fr/investisseur-prive-particulier/fundsheet/diversifie-monde/bnp-paribas-retraite-responsable-2019-2021-p-c-fr0010146787
p170
sVlu0107069717
p171
g4
sVlu0823389183
p172
Vhttp://www.bnpparibas-ip.fr/investisseur-prive-particulier/fundsheet/obligations-internationales/parvest-bond-world-high-yield-classic-c-lu0823388615
p173
sVbe0146933750
p174
Vhttp://www.bnpparibas-ip.fr/investisseur-prive-particulier/fundsheet/diversifie-monde/bnp-paribas-b-strategy-global-conservative-classic-d-be0146933750
p175
sVlu1163234195
p176
Vhttp://www.bnpparibas-ip.fr/investisseur-prive-particulier/fundsheet/actions-emergentes/bnp-paribas-flexi-i-csi-300-index-classic-eur-c-lu1163234278
p177
sVfr0011550672
p178
Vhttp://www.bnpparibas-ip.fr/investisseur-prive-particulier/fundsheet/actions-europeennes/bnp-paribas-easy-stoxx-europe-600-ucits-etf-classique-c-fr0011550193
p179
sVlu0823425839
p180
Vhttp://www.bnpparibas-ip.fr/investisseur-prive-particulier/fundsheet/actions-emergentes/parvest-equity-china-classic-eur-c-lu0823425839
p181
sVlu0111451596
p182
Vhttp://www.bnpparibas-ip.fr/investisseur-prive-particulier/fundsheet/actions-europeennes/parvest-equity-europe-mid-cap-classic-c-lu0066794719
p183
sVlu0848152095
p184
Vhttp://www.bnpparibas-ip.fr/investisseur-prive-particulier/fundsheet/diversifie-monde/bnp-paribas-quam-fund-medium-vol-classic-c-lu0236673397
p185
sVlu0159056620
p186
g18
sVlu1270632737
p187
Vhttp://www.bnpparibas-ip.fr/investisseur-prive-particulier/fundsheet/rendement-absolu/parvest-cross-asset-absolute-return-classic-c-lu1270631846
p188
sVfr0011670082
p189
Vhttp://www.bnpparibas-ip.fr/investisseur-prive-particulier/fundsheet/actions-internationales/theam-quant-equity-europe-core-a-eur-c-fr0011670082
p190
sVlu0406802685
p191
g86
sVlu1056594580
p192
Vhttp://www.bnpparibas-ip.fr/investisseur-prive-particulier/fundsheet/diversifie-monde/bnp-paribas-l1-multi-asset-income-classic-c-lu1056594234
p193
sVlu0283407293
p194
g24
sVfr0010302398
p195
Vhttp://www.bnpparibas-ip.fr/investisseur-prive-particulier/fundsheet/actions-europeennes/bnp-paribas-actions-europe-responsable-classic-c-fr0010302398
p196
sVlu0283417250
p197
Vhttp://www.bnpparibas-ip.fr/investisseur-prive-particulier/fundsheet/actions-emergentes/parvest-equity-latin-america-classic-eur-c-lu0283417250
p198
sVfr0010732701
p199
Vhttp://www.bnpparibas-ip.fr/investisseur-prive-particulier/fundsheet/portefeuilles-diversifies-europe/camgestion-europe-equilibre-classique-c-fr0010732701
p200
sVlu0823394852
p201
Vhttp://www.bnpparibas-ip.fr/investisseur-prive-particulier/fundsheet/obligations-convertibles-internationales/parvest-convertible-bond-world-classic-rh-eur-c-lu0823394852
p202
sVlu1163234278
p203
g177
sVlu0823400501
p204
Vhttp://www.bnpparibas-ip.fr/investisseur-prive-particulier/fundsheet/actions-europeennes/parvest-equity-best-selection-europe-classic-c-lu0823399810
p205
sVlu0251810007
p206
g68
sVfr0010633818
p207
Vhttp://www.bnpparibas-ip.fr/investisseur-prive-particulier/fundsheet/obligations-europeennes/camgestion-capi-oblig-classique-c-fr0010633818
p208
sVfr0010106831
p209
Vhttp://www.bnpparibas-ip.fr/investisseur-prive-particulier/fundsheet/actions-europeennes/bnp-paribas-indice-france-classic-c-fr0010106831
p210
sVfr0011296383
p211
Vhttp://www.bnpparibas-ip.fr/investisseur-prive-particulier/fundsheet/obligations-internationales/bnp-paribas-obliselect-global-high-yield-2017-classic-c-fr0011296383
p212
sVlu1049891010
p213
Vhttp://www.bnpparibas-ip.fr/investisseur-prive-particulier/fundsheet/rendement-absolu/theam-quant-equity-guru-long-short-c-c-lu1049891010
p214
sVfr0010116343
p215
Vhttp://www.bnpparibas-ip.fr/investisseur-prive-particulier/fundsheet/marche-monetaire-eur/bnp-paribas-tresorerie-classic-c-fr0010116343
p216
sVlu1254145326
p217
Vhttp://www.bnpparibas-ip.fr/investisseur-prive-particulier/fundsheet/actions-americaines/bnp-paribas-l1-equity-usa-core-classic-eur-c-lu0531774767
p218
sVlu0930018931
p219
Vhttp://www.bnpparibas-ip.fr/investisseur-prive-particulier/fundsheet/produits-structures/bnp-paribas-plan-easy-future-2021-classic-c-lu0930018931
p220
sVlu0111491626
p221
Vhttp://www.bnpparibas-ip.fr/investisseur-prive-particulier/fundsheet/actions-europeennes/parvest-sustainable-equity-high-dividend-europe-classic-c-lu0111491469
p222
sVlu1377382012
p223
Vhttp://www.bnpparibas-ip.fr/investisseur-prive-particulier/fundsheet/actions-europeennes/bnp-paribas-easy-equity-momentum-europe-ucits-etf-c-lu1377382012
p224
sVlu1291092119
p225
Vhttp://www.bnpparibas-ip.fr/investisseur-prive-particulier/fundsheet/obligations-internationales/bnp-paribas-easy-jpm-embi-global-diversified-composite-track-privilege-h-eur-c-lu1291092119
p226
sVfr0007006929
p227
Vhttp://www.bnpparibas-ip.fr/investisseur-prive-particulier/fundsheet/actions-europeennes/camgestion-active-100-classique-c-fr0007006929
p228
sVfr0011088475
p229
Vhttp://www.bnpparibas-ip.fr/investisseur-prive-particulier/fundsheet/obligations-internationales/bnp-paribas-double-garantie-decembre-2018-classic-c-fr0011088475
p230
sVlu0823415012
p231
Vhttp://www.bnpparibas-ip.fr/investisseur-prive-particulier/fundsheet/actions-internationales/parvest-equity-world-energy-classic-c-lu0823414635
p232
sVlu0225846186
p233
Vhttp://www.bnpparibas-ip.fr/investisseur-prive-particulier/fundsheet/actions-emergentes/parvest-equity-south-korea-classic-eur-c-lu0282880698
p234
sVfr0012538098
p235
Vhttp://www.bnpparibas-ip.fr/investisseur-prive-particulier/fundsheet/actions-europeennes/bnp-paribas-strategie-privee-isr-actions-europe-classic-c-fr0012538098
p236
sVfr0012716710
p237
Vhttp://www.bnpparibas-ip.fr/investisseur-prive-particulier/fundsheet/produits-structures/eco-developpement-protege-90-classic-c-fr0012716710
p238
sVlu1104106973
p239
Vhttp://www.bnpparibas-ip.fr/investisseur-prive-particulier/fundsheet/produits-de-taux-emergents/parvest-bond-rmb-classic-c-lu1104106973
p240
sVlu0823386320
p241
Vhttp://www.bnpparibas-ip.fr/investisseur-prive-particulier/fundsheet/produits-de-taux-emergents/parvest-bond-world-emerging-local-classic-eur-c-lu0823385272
p242
sVlu0925122821
p243
g84
sVfr0007068085
p244
Vhttp://www.bnpparibas-ip.fr/investisseur-prive-particulier/fundsheet/actions-europeennes/bnp-paribas-easy-stoxx-europe-600-oil-gas-ucits-etf-classique-c-fr0007068085
p245
sVlu0662594398
p246
Vhttp://www.bnpparibas-ip.fr/investisseur-prive-particulier/fundsheet/produits-de-taux-emergents/parvest-bond-world-emerging-classic-eur-c-lu0282274348
p247
sVlu0823407779
p248
Vhttp://www.bnpparibas-ip.fr/investisseur-prive-particulier/fundsheet/actions-americaines/parvest-equity-high-dividend-usa-classic-eur-c-lu0823407779
p249
sVlu0265267954
p250
Vhttp://www.bnpparibas-ip.fr/investisseur-prive-particulier/fundsheet/actions-emergentes/parvest-equity-brazil-classic-eur-c-lu0281906387
p251
sVlu0347712191
p252
Vhttp://www.bnpparibas-ip.fr/investisseur-prive-particulier/fundsheet/actions-internationales/parvest-global-environment-classic-c-lu0347711466
p253
sVlu0249333690
p254
Vhttp://www.bnpparibas-ip.fr/investisseur-prive-particulier/fundsheet/obligations-internationales/parvest-bond-world-inflation-linked-classic-c-lu0249332619
p255
sVlu0325598166
p256
g8
sVlu0823385603
p257
g242
sVlu0823450787
p258
Vhttp://www.bnpparibas-ip.fr/investisseur-prive-particulier/fundsheet/matieres-premieres/parvest-commodities-classic-eur-c-lu0823449185
p259
sVfr0012443158
p260
Vhttp://www.bnpparibas-ip.fr/investisseur-prive-particulier/fundsheet/diversifie-monde/bnp-paribas-linus-flexi-world-a-c-fr0012443158
p261
sVlu0249332619
p262
g255
sVlu0925122235
p263
Vhttp://www.bnpparibas-ip.fr/investisseur-prive-particulier/fundsheet/autres-fonds-actions-pays-developpes/parvest-equity-japan-small-cap-classic-eur-c-lu0251807987
p264
sVlu1270632067
p265
g188
sVfr0013127149
p266
Vhttp://www.bnpparibas-ip.fr/investisseur-prive-particulier/fundsheet/portefeuilles-diversifies-europe/bnpp-european-multi-asset-moderate-a-c-fr0013127149
p267
sVlu1022398496
p268
Vhttp://www.bnpparibas-ip.fr/investisseur-prive-particulier/fundsheet/actions-internationales/parvest-equity-high-dividend-world-classic-c-lu1022398496
p269
sVlu1022405028
p270
Vhttp://www.bnpparibas-ip.fr/investisseur-prive-particulier/fundsheet/obligations-internationales/parvest-flexible-bond-euro-classic-c-lu1022404724
p271
sVlu0823423388
p272
g116
sVfr0010076893
p273
g114
sVfr0013057130
p274
Vhttp://www.bnpparibas-ip.fr/investisseur-prive-particulier/fundsheet/diversifie-monde/camgestion-g-n-ration-2031-35-classic-c-fr0013057130
p275
sVlu0925123803
p276
g100
sVlu0823409635
p277
Vhttp://www.bnpparibas-ip.fr/investisseur-prive-particulier/fundsheet/actions-emergentes/parvest-equity-asia-pacific-ex-japan-classic-eur-c-lu0823409718
p278
sVlu1022404138
p279
g102
sVfr0011314293
p280
Vhttp://www.bnpparibas-ip.fr/investisseur-prive-particulier/fundsheet/obligations-europeennes/bnp-paribas-obliselect-nordic-hy-2019-hedged-classic-c-fr0011314335
p281
sVlu0823433858
p282
g74
sVlu0823399067
p283
Vhttp://www.bnpparibas-ip.fr/investisseur-prive-particulier/fundsheet/actions-europeennes/parvest-equity-best-selection-europe-ex-uk-classic-c-lu0823398416
p284
sVfr0007471198
p285
Vhttp://www.bnpparibas-ip.fr/investisseur-prive-particulier/fundsheet/diversifie-monde/actions-monde-bnpp-ip-classique-h-fr0007471198
p286
sVlu0823421689
p287
Vhttp://www.bnpparibas-ip.fr/investisseur-prive-particulier/fundsheet/actions-internationales/parvest-equity-world-technology-classic-c-lu0823421689
p288
sVlu0083137926
p289
Vhttp://www.bnpparibas-ip.fr/investisseur-prive-particulier/fundsheet/marche-monetaire-eur/parvest-money-market-euro-classic-c-lu0083138064
p290
sVlu0823404081
p291
Vhttp://www.bnpparibas-ip.fr/investisseur-prive-particulier/fundsheet/actions-emergentes/parvest-equity-europe-emerging-classic-c-lu0823403356
p292
sVlu1104425308
p293
Vhttp://www.bnpparibas-ip.fr/investisseur-prive-particulier/fundsheet/actions-europeennes/parvest-equity-europe-growth-classic-c-lu0823404248
p294
sVfr0010217588
p295
Vhttp://www.bnpparibas-ip.fr/investisseur-prive-particulier/fundsheet/actions-europeennes/bnp-paribas-actions-entrepreneurs-classic-c-fr0010217588
p296
sVlu1120433575
p297
Vhttp://www.bnpparibas-ip.fr/investisseur-prive-particulier/fundsheet/actions-internationales/theam-quant-equity-us-covered-c-eur-c-lu1120433732
p298
sVlu0347711466
p299
g253
sVlu0111466271
p300
Vhttp://www.bnpparibas-ip.fr/investisseur-prive-particulier/fundsheet/obligations-convertibles-emergentes/parvest-convertible-bond-asia-classic-eur-c-lu0281885953
p301
sVfr0010409946
p302
Vhttp://www.bnpparibas-ip.fr/investisseur-prive-particulier/fundsheet/obligations-europeennes/fundquest-bond-opportunities-classic-c-fr0010409946
p303
sVlu0930019236
p304
Vhttp://www.bnpparibas-ip.fr/investisseur-prive-particulier/fundsheet/produits-structures/bnp-paribas-plan-easy-future-2023-classic-c-lu0930019236
p305
sVfr0010294959
p306
Vhttp://www.bnpparibas-ip.fr/investisseur-prive-particulier/fundsheet/autres-marches-monetaires/bnp-paribas-structure-court-terme-classic-c-fr0010609099
p307
sVlu0823414718
p308
g232
sVfr0011318039
p309
Vhttp://www.bnpparibas-ip.fr/investisseur-prive-particulier/fundsheet/obligations-europeennes/bnp-paribas-obliselect-nordic-hy-2019-classic-c-fr0011318039
p310
sVlu1270631846
p311
g188
sVlu0930019582
p312
g65
sVlu0823387054
p313
g242
sVlu0030437460
p314
g112
sVlu0107061904
p315
g198
sVlu0823449425
p316
g259
sVfr0011681956
p317
Vhttp://www.bnpparibas-ip.fr/investisseur-prive-particulier/fundsheet/produits-structures/bnp-paribas-eco-developpement-2021-classic-c-fr0011681956
p318
sVfr0013176369
p319
Vhttp://www.bnpparibas-ip.fr/investisseur-prive-particulier/fundsheet/obligations-europeennes/bnp-paribas-sustainable-bond-euro-short-term-classic-c-fr0013176336
p320
sVfr0011249390
p321
Vhttp://www.bnpparibas-ip.fr/investisseur-prive-particulier/fundsheet/produits-structures/bnp-paribas-gestion-active-octobre-2018-classic-c-fr0011249390
p322
sVlu0783285330
p323
Vhttp://www.bnpparibas-ip.fr/investisseur-prive-particulier/fundsheet/marche-monetaire-usd/bnp-paribas-insticash-usd-classic-c-lu0167238863
p324
sVlu0823449268
p325
g259
sVfr0000285629
p326
Vhttp://www.bnpparibas-ip.fr/investisseur-prive-particulier/fundsheet/obligations-convertibles-europeennes/camgestion-convertibles-europe-classic-h-fr0000285629
p327
sVfr0011908102
p328
Vhttp://www.bnpparibas-ip.fr/investisseur-prive-particulier/fundsheet/obligations-europeennes/bnp-paribas-euro-flexi-bond-income-a-h-fr0011908078
p329
sVlu1481201702
p330
Vhttp://www.bnpparibas-ip.fr/investisseur-prive-particulier/fundsheet/actions-europeennes/bnp-paribas-easy-equity-value-europe-ucits-etf-c-lu1377382285
p331
sVlu0957145369
p332
g118
sVlu0531975158
p333
g16
sVlu0012181235
p334
Vhttp://www.bnpparibas-ip.fr/investisseur-prive-particulier/fundsheet/actions-americaines/parvest-equity-usa-classic-eur-c-lu0251804968
p335
sVlu0823401574
p336
Vhttp://www.bnpparibas-ip.fr/investisseur-prive-particulier/fundsheet/actions-europeennes/parvest-equity-best-selection-euro-classic-c-lu0823401574
p337
sVlu1056593426
p338
g89
sVfr0010670653
p339
g137
sVlu1245560070
p340
Vhttp://www.bnpparibas-ip.fr/investisseur-prive-particulier/fundsheet/actions-emergentes/theam-quant-equity-emerging-guru-c-eur-c-lu1120436321
p341
sVlu0823389423
p342
g70
sVfr0012739431
p343
Vhttp://www.bnpparibas-ip.fr/investisseur-prive-particulier/fundsheet/actions-europeennes/bnp-paribas-easy-euro-stoxx-50-ucits-etf-eur-c-c-fr0012739431
p344
sVlu0111445861
p345
Vhttp://www.bnpparibas-ip.fr/investisseur-prive-particulier/fundsheet/autres-fonds-actions-pays-developpes/parvest-equity-japan-classic-eur-c-lu0251809090
p346
sVlu1291107248
p347
g159
sVlu1291098314
p348
Vhttp://www.bnpparibas-ip.fr/investisseur-prive-particulier/fundsheet/actions-emergentes/bnp-paribas-easy-msci-emerging-markets-sri-ucits-etf-c-lu1291098314
p349
sVfr0010609099
p350
g307
sVlu0177332573
p351
Vhttp://www.bnpparibas-ip.fr/investisseur-prive-particulier/fundsheet/actions-europeennes/parvest-equity-europe-value-classic-c-lu0177332227
p352
sVlu0167236909
p353
Vhttp://www.bnpparibas-ip.fr/investisseur-prive-particulier/fundsheet/marche-monetaire-gbp/bnp-paribas-insticash-gbp-classic-c-lu0167236651
p354
sVlu0086914446
p355
Vhttp://www.bnpparibas-ip.fr/investisseur-prive-particulier/fundsheet/obligations-europeennes/parvest-bond-euro-medium-term-classic-c-lu0086914362
p356
sVlu0950372911
p357
Vhttp://www.bnpparibas-ip.fr/investisseur-prive-particulier/fundsheet/actions-europeennes/parvest-equity-nordic-small-cap-classic-c-lu0950372838
p358
sVlu0245286777
p359
Vhttp://www.bnpparibas-ip.fr/investisseur-prive-particulier/fundsheet/actions-internationales/bnp-paribas-islamic-fund-equity-optimiser-classic-c-lu0245286777
p360
sVfr0011176841
p361
Vhttp://www.bnpparibas-ip.fr/investisseur-prive-particulier/fundsheet/autres-marches-monetaires/bnp-paribas-court-terme-assurance-classic-c-fr0011176841
p362
sVlu0828230770
p363
Vhttp://www.bnpparibas-ip.fr/investisseur-prive-particulier/fundsheet/obligations-europeennes/parvest-sustainable-bond-euro-classic-c-lu0828230697
p364
sVlu1291092978
p365
Vhttp://www.bnpparibas-ip.fr/investisseur-prive-particulier/fundsheet/obligations-internationales/bnp-paribas-easy-jpm-gbi-emu-track-privilege-c-lu1291092978
p366
sVfr0012553659
p367
Vhttp://www.bnpparibas-ip.fr/investisseur-prive-particulier/fundsheet/obligations-europeennes/camgestion-obliflexible-classic-h-fr0012553659
p368
sVlu1325793427
p369
Vhttp://www.bnpparibas-ip.fr/investisseur-prive-particulier/fundsheet/actions-internationales/parworld-equity-world-defi-classic-c-lu1325792700
p370
sVlu0823380398
p371
g46
sVfr0010115014
p372
g155
sVlu1291098827
p373
Vhttp://www.bnpparibas-ip.fr/investisseur-prive-particulier/fundsheet/actions-europeennes/bnp-paribas-easy-msci-emu-ex-controversial-weapons-track-privilege-c-lu1291098660
p374
sVfr0012686020
p375
Vhttp://www.bnpparibas-ip.fr/investisseur-prive-particulier/fundsheet/actions-internationales/fundquest-ethisworld-b-h-fr0012686046
p376
sVlu1022398652
p377
g269
sVlu0158838473
p378
Vhttp://www.bnpparibas-ip.fr/investisseur-prive-particulier/fundsheet/actions-europeennes/bnp-paribas-l1-equity-europe-classic-c-lu0010012721
p379
sVfr0007494166
p380
Vhttp://www.bnpparibas-ip.fr/investisseur-prive-particulier/fundsheet/obligations-europeennes/camgestion-oblicycle-inflation-classic-c-fr0007494166
p381
sVlu0111466198
p382
g52
sVfr0010712729
p383
Vhttp://www.bnpparibas-ip.fr/investisseur-prive-particulier/fundsheet/obligations-europeennes/camgestion-euroblig-classic-c-fr0010712729
p384
sVfr0010576777
p385
Vhttp://www.bnpparibas-ip.fr/investisseur-prive-particulier/fundsheet/marche-monetaire-eur/bami-tresorerie-classic-c-fr0010576777
p386
sVlu0907251499
p387
g94
sVlu0194438338
p388
g346
sVlu0010000809
p389
g18
sVlu0823426480
p390
g181
sVfr0010636456
p391
Vhttp://www.bnpparibas-ip.fr/investisseur-prive-particulier/fundsheet/rendement-absolu/bnp-paribas-multistrategies-actif-classique-c-fr0010636456
p392
sVfr0010716217
p393
Vhttp://www.bnpparibas-ip.fr/investisseur-prive-particulier/fundsheet/diversifie-monde/camgestion-g-n-ration-2021-25-classic-c-fr0010716217
p394
sVlu0823432454
p395
g151
sVlu1022403676
p396
g102
sVfr0007044706
p397
Vhttp://www.bnpparibas-ip.fr/investisseur-prive-particulier/fundsheet/actions-europeennes/cnp-assur-smid-cap-europe-classique-h-fr0007044706
p398
sVlu1481200217
p399
Vhttp://www.bnpparibas-ip.fr/investisseur-prive-particulier/fundsheet/obligations-internationales/bnp-paribas-easy-barclays-euro-government-inflation-linked-all-maturities-track-privilege-c-lu1291090766
p400
sVlu0190304740
p401
Vhttp://www.bnpparibas-ip.fr/investisseur-prive-particulier/fundsheet/obligations-europeennes/parvest-bond-euro-inflation-linked-classic-c-lu0190304583
p402
sVfr0007068051
p403
Vhttp://www.bnpparibas-ip.fr/investisseur-prive-particulier/fundsheet/actions-europeennes/bnp-paribas-easy-stoxx-europe-600-media-ucits-etf-classique-c-fr0007068051
p404
sVfr0000299620
p405
Vhttp://www.bnpparibas-ip.fr/investisseur-prive-particulier/fundsheet/marche-monetaire-eur/bnp-paribas-mone-etat-classic-c-fr0011279827
p406
sVlu0982365545
p407
Vhttp://www.bnpparibas-ip.fr/investisseur-prive-particulier/fundsheet/actions-europeennes/bnp-paribas-l1-equity-europe-low-volatility-classic-c-lu0982365545
p408
sVlu1150255971
p409
Vhttp://www.bnpparibas-ip.fr/investisseur-prive-particulier/fundsheet/obligations-internationales/bnp-paribas-islamic-fund-hilal-income-classic-c-lu1150255971
p410
sVfr0010146522
p411
Vhttp://www.bnpparibas-ip.fr/investisseur-prive-particulier/fundsheet/diversifie-monde/bnp-paribas-retraite-responsable-horizon-i-100-c-fr0010146522
p412
sVlu0823416762
p413
Vhttp://www.bnpparibas-ip.fr/investisseur-prive-particulier/fundsheet/actions-internationales/parvest-equity-world-health-care-classic-c-lu0823416762
p414
sVfr0010714279
p415
g6
sVlu0107086729
p416
g247
sVfr0011033950
p417
Vhttp://www.bnpparibas-ip.fr/investisseur-prive-particulier/fundsheet/obligations-internationales/bnp-paribas-double-garantie-juillet-2017-classic-c-fr0011033950
p418
sVlu0111550652
p419
g40
sVlu1049887414
p420
Vhttp://www.bnpparibas-ip.fr/investisseur-prive-particulier/fundsheet/actions-europeennes/theam-quant-equity-europe-income-defensive-c-c-lu1049885806
p421
sVlu0823431720
p422
g151
sVfr0011036110
p423
Vhttp://www.bnpparibas-ip.fr/investisseur-prive-particulier/fundsheet/actions-europeennes/camgestion-actions-euro-classic-c-fr0011036110
p424
sVlu0225845295
p425
g234
sVfr0010941617
p426
Vhttp://www.bnpparibas-ip.fr/investisseur-prive-particulier/fundsheet/produits-structures/yosemite-classic-c-fr0010941617
p427
sVlu0823425169
p428
Vhttp://www.bnpparibas-ip.fr/investisseur-prive-particulier/fundsheet/actions-internationales/parvest-equity-world-utilities-classic-c-lu0823424782
p429
sVlu0823392211
p430
g147
sVfr0010076638
p431
Vhttp://www.bnpparibas-ip.fr/investisseur-prive-particulier/fundsheet/diversifie-monde/bnp-paribas-floreal-30-classic-d-fr0010076638
p432
sVlu0212189012
p433
g12
sVfr0010376848
p434
Vhttp://www.bnpparibas-ip.fr/investisseur-prive-particulier/fundsheet/actions-europeennes/fundquest-europe-opportunities-classic-c-fr0010376848
p435
sVlu0823411458
p436
g48
sVlu0774754948
p437
Vhttp://www.bnpparibas-ip.fr/investisseur-prive-particulier/fundsheet/actions-internationales/parworld-quant-equity-world-guru-classic-c-lu0774754948
p438
sVlu0377066633
p439
Vhttp://www.bnpparibas-ip.fr/investisseur-prive-particulier/fundsheet/obligations-convertibles-europeennes/bnp-paribas-l1-convertible-bond-best-selection-europe-classic-c-lu0377063960
p440
sVlu0823449698
p441
g259
sVlu1291102108
p442
Vhttp://www.bnpparibas-ip.fr/investisseur-prive-particulier/fundsheet/actions-internationales/bnp-paribas-easy-msci-japan-ex-controversial-weapons-track-classic-capitalisationlu1291101985
p443
sVlu0930020911
p444
Vhttp://www.bnpparibas-ip.fr/investisseur-prive-particulier/fundsheet/produits-structures/bnp-paribas-plan-easy-future-2043-classic-c-lu0930020838
p445
sVlu0823401731
p446
g337
sVlu1022808221
p447
Vhttp://www.bnpparibas-ip.fr/investisseur-prive-particulier/fundsheet/autres-fonds-actions-pays-developpes/parvest-equity-usa-value-classic-eur-c-lu1022808148
p448
sVlu0823422497
p449
g288
sVlu1022399973
p450
g448
sVfr0010113639
p451
Vhttp://www.bnpparibas-ip.fr/investisseur-prive-particulier/fundsheet/obligations-europeennes/bnp-paribas-obli-ct-classic-c-fr0010112094
p452
sVlu0111463419
p453
g100
sVlu1484486805
p454
Vhttp://www.bnpparibas-ip.fr/investisseur-prive-particulier/fundsheet/rendement-absolu/parworld-lyra-classic-c-lu1484486714
p455
sVlu1022392531
p456
Vhttp://www.bnpparibas-ip.fr/investisseur-prive-particulier/fundsheet/obligations-europeennes/parvest-bond-euro-short-term-corporate-classic-c-lu1022392028
p457
sVlu0823398259
p458
Vhttp://www.bnpparibas-ip.fr/investisseur-prive-particulier/fundsheet/actions-emergentes/parvest-equity-best-selection-asia-ex-japan-classic-eur-c-lu0823397368
p459
sVlu1022394156
p460
Vhttp://www.bnpparibas-ip.fr/investisseur-prive-particulier/fundsheet/obligations-internationales/parvest-bond-world-high-yield-short-duration-classic-c-lu1022394156
p461
sVfr0010077362
p462
Vhttp://www.bnpparibas-ip.fr/investisseur-prive-particulier/fundsheet/actions-europeennes/bnp-paribas-europe-dividende-responsable-classic-c-fr0010077362
p463
sVlu0823381289
p464
Vhttp://www.bnpparibas-ip.fr/investisseur-prive-particulier/fundsheet/obligations-europeennes/parvest-bond-euro-high-yield-classic-c-lu0823380802
p465
sVfr0011236652
p466
Vhttp://www.bnpparibas-ip.fr/investisseur-prive-particulier/fundsheet/matieres-premieres/alpha-commodity-fund-a-usd-c-fr0011236652
p467
sVlu0823397954
p468
g459
sVfr0010772020
p469
Vhttp://www.bnpparibas-ip.fr/investisseur-prive-particulier/fundsheet/actions-europeennes/camgestion-deep-value-classic-c-fr0010772020
p470
sVlu0823433932
p471
g74
sVlu0823402036
p472
g337
sVfr0010230516
p473
Vhttp://www.bnpparibas-ip.fr/investisseur-prive-particulier/fundsheet/actions-europeennes/euro-stoxx-theam-easy-ucits-etf-classique-h-fr0010230516
p474
sVlu0281885953
p475
g301
sVlu0823406961
p476
Vhttp://www.bnpparibas-ip.fr/investisseur-prive-particulier/fundsheet/actions-emergentes/parvest-equity-high-dividend-pacific-classic-eur-c-lu0823406961
p477
sVlu1078737910
p478
Vhttp://www.bnpparibas-ip.fr/investisseur-prive-particulier/fundsheet/diversifie-monde/bnp-paribas-a-fund-european-multi-asset-income-classic-c-lu1078737910
p479
sVlu0095613583
p480
g301
sVfr0011550680
p481
Vhttp://www.bnpparibas-ip.fr/investisseur-prive-particulier/fundsheet/actions-americaines/bnp-paribas-easy-s-p-500-ucits-etf-c-eur-c-fr0011550185
p482
sVlu1049891101
p483
g214
sVlu0218129350
p484
Vhttp://www.bnpparibas-ip.fr/investisseur-prive-particulier/fundsheet/rendement-absolu/parworld-tracker-macro-opportunities-classic-c-lu0218129350
p485
sVfr0007006911
p486
Vhttp://www.bnpparibas-ip.fr/investisseur-prive-particulier/fundsheet/portefeuilles-diversifies-europe/camgestion-active-convictions-classic-c-fr0007006911
p487
sVlu0194436803
p488
g78
sVlu0823403943
p489
g292
sVfr0011182773
p490
Vhttp://www.bnpparibas-ip.fr/investisseur-prive-particulier/fundsheet/obligations-internationales/bnp-paribas-double-garantie-juillet-2020-classic-c-fr0011182773
p491
sVlu1056593343
p492
g89
sVlu1080341578
p493
Vhttp://www.bnpparibas-ip.fr/investisseur-prive-particulier/fundsheet/obligations-americaines/bnp-paribas-flexi-i-us-mortgage-classic-c-lu1080341065
p494
sVlu1235113286
p495
Vhttp://www.bnpparibas-ip.fr/investisseur-prive-particulier/fundsheet/actions-europeennes/theam-quant-equity-europe-income-protected-protected-i-c-lu1235113286
p496
sVfr0010028910
p497
Vhttp://www.bnpparibas-ip.fr/investisseur-prive-particulier/fundsheet/actions-europeennes/bnp-paribas-actions-europe-classic-c-fr0010028910
p498
sVfr0013157146
p499
Vhttp://www.bnpparibas-ip.fr/investisseur-prive-particulier/fundsheet/actions-europeennes/bnp-paribas-smallcap-euroland-classic-c-fr0010128587
p500
sVlu0132151464
p501
Vhttp://www.bnpparibas-ip.fr/investisseur-prive-particulier/fundsheet/diversifie-monde/bnp-paribas-l1-diversified-world-balanced-classic-c-lu0132151118
p502
sVfr0010077453
p503
Vhttp://www.bnpparibas-ip.fr/investisseur-prive-particulier/fundsheet/actions-europeennes/bnp-paribas-technologies-europe-classic-c-fr0010077453
p504
sVfr0013153236
p505
Vhttp://www.bnpparibas-ip.fr/investisseur-prive-particulier/fundsheet/obligations-europeennes/bnp-paribas-european-hy-2022-classic-capitalisationfr0013153228
p506
sVfr0010714246
p507
g6
sVlu0823413157
p508
Vhttp://www.bnpparibas-ip.fr/investisseur-prive-particulier/fundsheet/actions-emergentes/parvest-equity-world-emerging-classic-eur-c-lu0823413074
p509
sVfr0010077461
p510
Vhttp://www.bnpparibas-ip.fr/investisseur-prive-particulier/fundsheet/actions-europeennes/bnp-paribas-energie-europe-classic-c-fr0010077461
p511
sVlu0823424865
p512
g429
sVlu1120431280
p513
Vhttp://www.bnpparibas-ip.fr/investisseur-prive-particulier/fundsheet/actions-internationales/theam-quant-equity-euro-covered-c-c-lu1120431280
p514
sVlu1484486714
p515
g455
sVlu0823428189
p516
Vhttp://www.bnpparibas-ip.fr/investisseur-prive-particulier/fundsheet/actions-europeennes/parvest-equity-germany-classic-c-lu0823427611
p517
sVfr0010076547
p518
Vhttp://www.bnpparibas-ip.fr/investisseur-prive-particulier/fundsheet/diversifie-monde/bnp-paribas-selection-dynamique-monde-classic-c-fr0010076547
p519
sVlu0111548326
p520
Vhttp://www.bnpparibas-ip.fr/investisseur-prive-particulier/fundsheet/obligations-europeennes/parvest-bond-euro-government-classic-c-lu0111548326
p521
sVfr0007031877
p522
Vhttp://www.bnpparibas-ip.fr/investisseur-prive-particulier/fundsheet/marche-monetaire-eur/bnp-paribas-monetaire-assurance-classic-c-fr0007031877
p523
sVlu0823390868
p524
Vhttp://www.bnpparibas-ip.fr/investisseur-prive-particulier/fundsheet/obligations-europeennes/parvest-bond-euro-classic-c-lu0075938133
p525
sVlu1151728836
p526
Vhttp://www.bnpparibas-ip.fr/investisseur-prive-particulier/fundsheet/diversifie-monde/bnp-paribas-l1-patrimoine-classic-c-lu1151728596
p527
sVlu0823385512
p528
g242
sVlu0212189368
p529
g12
sVlu0823417497
p530
g414
sVfr0013063989
p531
Vhttp://www.bnpparibas-ip.fr/investisseur-prive-particulier/fundsheet/actions-europeennes/ds-patrimoine-e-c-fr0013063989
p532
sVfr0010104901
p533
Vhttp://www.bnpparibas-ip.fr/investisseur-prive-particulier/fundsheet/obligations-europeennes/bnp-paribas-obli-long-terme-classic-c-fr0010098210
p534
sVlu0823408074
p535
g249
sVfr0007018775
p536
Vhttp://www.bnpparibas-ip.fr/investisseur-prive-particulier/fundsheet/portefeuilles-diversifies-europe/objectif-actions-classique-d-fr0007018775
p537
sVlu0823403786
p538
g292
sVlu1049895607
p539
Vhttp://www.bnpparibas-ip.fr/investisseur-prive-particulier/fundsheet/matieres-premieres/theam-quant-raw-materials-enhanced-j-eur-h-c-lu1049895193
p540
sVlu1325792700
p541
g370
sVlu1049884155
p542
Vhttp://www.bnpparibas-ip.fr/investisseur-prive-particulier/fundsheet/actions-americaines/theam-quant-equity-us-income-defensive-c-eur-c-lu1049884312
p543
sVfr0010144550
p544
g139
sVfr0013127172
p545
g267
sVlu0265291152
p546
Vhttp://www.bnpparibas-ip.fr/investisseur-prive-particulier/fundsheet/obligations-internationales/parvest-sustainable-bond-world-corporate-classic-c-lu0282388437
p547
sVlu1291103171
p548
Vhttp://www.bnpparibas-ip.fr/investisseur-prive-particulier/fundsheet/actions-americaines/bnp-paribas-easy-msci-kld-400-social-track-privilege-c-lu1291103171
p549
sVlu0950373133
p550
g358
sVlu0102019857
p551
g100
sVlu1056591560
p552
Vhttp://www.bnpparibas-ip.fr/investisseur-prive-particulier/fundsheet/actions-internationales/bnp-paribas-l1-equity-world-quality-focus-classic-c-lu1056591487
p553
sVfr0011333780
p554
Vhttp://www.bnpparibas-ip.fr/investisseur-prive-particulier/fundsheet/actions-europeennes/bnp-paribas-best-selection-euro-classic-h-fr0011333780
p555
sVlu0823427884
p556
g517
sVlu0154246218
p557
Vhttp://www.bnpparibas-ip.fr/investisseur-prive-particulier/fundsheet/actions-americaines/parvest-equity-usa-mid-cap-classic-eur-c-lu0251807045
p558
sVfr0011870997
p559
Vhttp://www.bnpparibas-ip.fr/investisseur-prive-particulier/fundsheet/diversifie-monde/bnp-paribas-social-business-france-classic-c-fr0011870997
p560
sVlu0823398507
p561
g284
sVlu1291090766
p562
g400
sVlu1291109616
p563
Vhttp://www.bnpparibas-ip.fr/investisseur-prive-particulier/fundsheet/matieres-premieres/bnp-paribas-easy-energy-metals-enhanced-roll-ucits-etf-eur-c-lu1291109616
p564
sVlu0167236651
p565
g354
sVfr0010261842
p566
Vhttp://www.bnpparibas-ip.fr/investisseur-prive-particulier/fundsheet/actions-internationales/bnp-paribas-utilities-classic-c-fr0010261842
p567
sVlu0907251655
p568
Vhttp://www.bnpparibas-ip.fr/investisseur-prive-particulier/fundsheet/actions-emergentes/bnp-paribas-l1-equity-world-emerging-classic-c-lu0907251655
p569
sVlu0823417141
p570
g414
sVlu0925120700
p571
g40
sVlu0172351099
p572
g16
sVlu1291093604
p573
Vhttp://www.bnpparibas-ip.fr/investisseur-prive-particulier/fundsheet/obligations-internationales/bnp-paribas-easy-jpm-gbi-global-ex-emu-hedged-eur-track-privilege-c-lu1291093604
p574
sVfr0010682690
p575
Vhttp://www.bnpparibas-ip.fr/investisseur-prive-particulier/fundsheet/obligations-europeennes/cortal-consors-open-rendement-classic-c-fr0010682690
p576
sVlu0930020598
p577
Vhttp://www.bnpparibas-ip.fr/investisseur-prive-particulier/fundsheet/produits-structures/bnp-paribas-plan-easy-future-2038-classic-c-lu0930020598
p578
sVlu1165136257
p579
g36
sVlu0823418388
p580
g145
sVlu0823417224
p581
g414
sVfr0012538130
p582
Vhttp://www.bnpparibas-ip.fr/investisseur-prive-particulier/fundsheet/actions-internationales/bnp-paribas-strategie-privee-isr-actions-internationales-classic-c-fr0012538130
p583
sVfr0010668145
p584
Vhttp://www.bnpparibas-ip.fr/investisseur-prive-particulier/fundsheet/actions-internationales/bnp-paribas-aqua-classic-c-fr0010668145
p585
sVlu0111549217
p586
g521
sVlu1104115453
p587
Vhttp://www.bnpparibas-ip.fr/investisseur-prive-particulier/fundsheet/diversifie-monde/parvest-flexible-multi-asset-classic-c-lu1104115453
p588
sVfr0013176351
p589
g320
sVlu0066794719
p590
g183
sVfr0010417857
p591
Vhttp://www.bnpparibas-ip.fr/investisseur-prive-particulier/fundsheet/hedge-fund/bnp-paribas-alternatif-p-c-fr0010417857
p592
sVlu0161743942
p593
Vhttp://www.bnpparibas-ip.fr/investisseur-prive-particulier/fundsheet/obligations-europeennes/bnp-paribas-l1-bond-euro-high-yield-classic-c-lu0907251226
p594
sVfr0010146803
p595
Vhttp://www.bnpparibas-ip.fr/investisseur-prive-particulier/fundsheet/diversifie-monde/bnp-paribas-retraite-responsable-2022-2024-p-c-fr0010146803
p596
sVfr0010693168
p597
Vhttp://www.bnpparibas-ip.fr/investisseur-prive-particulier/fundsheet/obligations-europeennes/camgestion-oblicycle-credit-classic-c-fr0010693168
p598
sVlu1049884668
p599
g543
sVlu1022404724
p600
g271
sVlu0823412423
p601
g164
sVlu0823398929
p602
g284
sVfr0011882331
p603
Vhttp://www.bnpparibas-ip.fr/investisseur-prive-particulier/fundsheet/produits-structures/isis-europe-value-2020-classic-c-fr0011882331
p604
sVlu1022405374
p605
g271
sVfr0010028761
p606
Vhttp://www.bnpparibas-ip.fr/investisseur-prive-particulier/fundsheet/obligations-convertibles-europeennes/bnp-paribas-convertibles-europe-classic-c-fr0010028761
p607
sVlu0212175227
p608
g54
sVlu0107088931
p609
Vhttp://www.bnpparibas-ip.fr/investisseur-prive-particulier/fundsheet/diversifie-monde/parvest-diversified-dynamic-classic-c-lu0089291651
p610
sVlu0107087537
p611
g52
sVlu0158087725
p612
Vhttp://www.bnpparibas-ip.fr/investisseur-prive-particulier/fundsheet/actions-europeennes/bnp-paribas-l1-equity-euro-classic-c-lu0087045034
p613
sVlu1291097423
p614
Vhttp://www.bnpparibas-ip.fr/investisseur-prive-particulier/fundsheet/actions-emergentes/bnp-paribas-easy-msci-emerging-markets-ex-controversial-weapons-track-classic-c-lu1291097340
p615
sVlu0823450191
p616
g259
sVlu0823428932
p617
Vhttp://www.bnpparibas-ip.fr/investisseur-prive-particulier/fundsheet/actions-emergentes/parvest-equity-india-classic-eur-c-lu0823428346
p618
sVlu1022808494
p619
g448
sVlu1078738058
p620
g479
sVlu0823415871
p621
g20
sVlu0828230697
p622
g364
sVlu0823396717
p623
g8
sVfr0010274035
p624
Vhttp://www.bnpparibas-ip.fr/investisseur-prive-particulier/fundsheet/actions-europeennes/cnp-actions-europe-pioneer-a-h-fr0010250050
p625
sVlu0823448294
p626
Vhttp://www.bnpparibas-ip.fr/investisseur-prive-particulier/fundsheet/obligations-internationales/parvest-bond-absolute-return-v350-classic-c-lu0823447643
p627
sVlu0107086646
p628
g356
sVlu0823447213
p629
g364
sVlu1291108303
p630
Vhttp://www.bnpparibas-ip.fr/investisseur-prive-particulier/fundsheet/actions-internationales/bnp-paribas-easy-msci-world-ex-controversial-weapons-track-privilege-h-eur-c-lu1291108998
p631
sVlu1056594747
p632
g193
sVfr0007436654
p633
Vhttp://www.bnpparibas-ip.fr/investisseur-prive-particulier/fundsheet/obligations-internationales/munich-re-placement-classique-c-fr0007436654
p634
sVlu0823448450
p635
g627
sVlu0823407340
p636
g477
sVfr0007024583
p637
Vhttp://www.bnpparibas-ip.fr/investisseur-prive-particulier/fundsheet/diversifie-monde/cortal-consors-open-patrimoine-classic-c-fr0007024583
p638
sVlu1291101555
p639
Vhttp://www.bnpparibas-ip.fr/investisseur-prive-particulier/fundsheet/actions-europeennes/bnp-paribas-easy-msci-europe-small-caps-ex-controversial-weapons-track-privilege-c-lu1291101126
p640
sVfr0010948455
p641
Vhttp://www.bnpparibas-ip.fr/investisseur-prive-particulier/fundsheet/produits-structures/everglades-classic-c-fr0010948455
p642
sVlu0823415285
p643
g232
sVlu1235106660
p644
Vhttp://www.bnpparibas-ip.fr/investisseur-prive-particulier/fundsheet/actions-europeennes/theam-quant-equity-europe-guru-c-capitalisationlu1235104293
p645
sVlu0950381748
p646
Vhttp://www.bnpparibas-ip.fr/investisseur-prive-particulier/fundsheet/actions-europeennes/bnp-paribas-easy-ftse-epra-nareit-eurozone-capped-ucits-etf-qd-d-lu0192223062
p647
sVlu0925122151
p648
g346
sVlu0089291651
p649
g610
sVfr0012169837
p650
Vhttp://www.bnpparibas-ip.fr/investisseur-prive-particulier/fundsheet/matieres-premieres/theam-quant-raw-materials-enhanced-b-eur-h-c-fr0012169860
p651
sVlu0823448377
p652
g627
sVfr0010077321
p653
Vhttp://www.bnpparibas-ip.fr/investisseur-prive-particulier/fundsheet/actions-europeennes/bnp-paribas-finance-europe-classic-c-fr0010077321
p654
sVfr0011617729
p655
g157
sVlu0823422653
p656
g288
sVlu0823383061
p657
Vhttp://www.bnpparibas-ip.fr/investisseur-prive-particulier/fundsheet/produits-de-taux-emergents/parvest-bond-europe-emerging-classic-c-lu0823382766
p658
sVlu0347712357
p659
g253
sVfr0010146894
p660
g130
sVlu1022808148
p661
g448
sVfr0010911107
p662
Vhttp://www.bnpparibas-ip.fr/investisseur-prive-particulier/fundsheet/produits-structures/appaloosa-classic-c-fr0010911107
p663
sVfr0000977555
p664
Vhttp://www.bnpparibas-ip.fr/investisseur-prive-particulier/fundsheet/diversifie-monde/gestion-moderate-international-classic-c-fr0000977555
p665
sVlu0823397525
p666
g459
sVlu0823394266
p667
g52
sVlu0823398416
p668
g284
sVlu0823443659
p669
g32
sVlu0930020085
p670
Vhttp://www.bnpparibas-ip.fr/investisseur-prive-particulier/fundsheet/produits-structures/bnp-paribas-plan-easy-future-2028-classic-c-lu0930019749
p671
sVlu0925122748
p672
g84
sVlu0111549134
p673
g521
sVfr0010565424
p674
Vhttp://www.bnpparibas-ip.fr/investisseur-prive-particulier/fundsheet/actions-internationales/theam-euro-long-vol-classic-c-fr0010565424
p675
sVlu0167238863
p676
g324
sVlu0823395743
p677
g202
sVlu1291105382
p678
Vhttp://www.bnpparibas-ip.fr/investisseur-prive-particulier/fundsheet/actions-emergentes/bnp-paribas-easy-msci-pacific-ex-japan-ex-controversial-weapons-track-classic-capitalisationlu1291105382
p679
sVfr0010146852
p680
Vhttp://www.bnpparibas-ip.fr/investisseur-prive-particulier/fundsheet/diversifie-monde/bnp-paribas-retraite-responsable-50-p-c-fr0010146852
p681
sVfr0007484399
p682
Vhttp://www.bnpparibas-ip.fr/investisseur-prive-particulier/fundsheet/marche-monetaire-eur/invest-monetaire-classic-c-fr0007484399
p683
sVlu0925123472
p684
g84
sVlu0177332490
p685
g352
sVlu0283503844
p686
g335
sVlu0823397368
p687
g459
sVlu1291106356
p688
g679
sVfr0010692301
p689
Vhttp://www.bnpparibas-ip.fr/investisseur-prive-particulier/fundsheet/produits-structures/capoeira-classic-c-fr0010692301
p690
sVlu1049884742
p691
g543
sVlu0823381792
p692
g402
sVlu1049884239
p693
g543
sVlu0154245673
p694
g558
sVlu0823382766
p695
g658
sVfr0013125663
p696
Vhttp://www.bnpparibas-ip.fr/investisseur-prive-particulier/fundsheet/actions-europeennes/theam-quant-equity-eurozone-guru-j-c-fr0013125663
p697
sVfr0011201003
p698
Vhttp://www.bnpparibas-ip.fr/investisseur-prive-particulier/fundsheet/produits-structures/bnp-paribas-gestion-active-plus-classic-c-fr0011201003
p699
sVfr0010839274
p700
Vhttp://www.bnpparibas-ip.fr/investisseur-prive-particulier/fundsheet/diversifie-monde/bnp-paribas-retraite-responsable-2028-2030-p-c-fr0010839274
p701
sVfr0010732719
p702
Vhttp://www.bnpparibas-ip.fr/investisseur-prive-particulier/fundsheet/portefeuilles-diversifies-europe/camgestion-europe-modere-classique-c-fr0010732719
p703
sVlu0823437925
p704
g42
sVfr0010714261
p705
g6
sVlu0823400766
p706
g205
sVlu1481202775
p707
Vhttp://www.bnpparibas-ip.fr/investisseur-prive-particulier/fundsheet/obligations-internationales/bnp-paribas-easy-markit-iboxx-eur-liquid-corporates-track-privilege-c-lu1291094321
p708
sVlu0823379036
p709
g46
sVfr0010276949
p710
Vhttp://www.bnpparibas-ip.fr/investisseur-prive-particulier/fundsheet/obligations-internationales/bnp-paribas-easy-markit-iboxx-liquid-sovereigns-ucits-etf-classique-c-fr0010276949
p711
sVlu0265268929
p712
g162
sVlu0903144755
p713
g259
sVlu0823443816
p714
g32
sVlu1049889972
p715
g128
sVlu0167237972
p716
Vhttp://www.bnpparibas-ip.fr/investisseur-prive-particulier/fundsheet/marche-monetaire-eur/bnp-paribas-insticash-eur-classic-c-lu0167237543
p717
sVlu0132151118
p718
g502
sVlu1056594234
p719
g193
sVlu0907251572
p720
Vhttp://www.bnpparibas-ip.fr/investisseur-prive-particulier/fundsheet/obligations-convertibles-internationales/bnp-paribas-l1-convertible-bond-world-classic-c-lu0907251572
p721
sVfr0011950583
p722
g303
sVlu0086914362
p723
g356
sVlu0957145286
p724
g118
sVlu1104113243
p725
g98
sVlu0823389852
p726
g70
sVlu1291099718
p727
Vhttp://www.bnpparibas-ip.fr/investisseur-prive-particulier/fundsheet/actions-europeennes/bnp-paribas-easy-msci-europe-ex-controversial-weapons-track-classic-c-lu1291099395
p728
sVlu0823388888
p729
g173
sVlu1120433732
p730
g298
sVlu0282885655
p731
Vhttp://www.bnpparibas-ip.fr/investisseur-prive-particulier/fundsheet/actions-europeennes/parvest-equity-europe-small-cap-classic-c-lu0212178916
p732
sVlu1291098660
p733
g374
sVlu1022394404
p734
g461
sVfr0011819002
p735
Vhttp://www.bnpparibas-ip.fr/investisseur-prive-particulier/fundsheet/obligations-europeennes/bnp-paribas-oblipar-classic-c-fr0011829225
p736
sVlu0283434859
p737
g24
sVlu0111463849
p738
g356
sVlu0907251226
p739
g594
sVfr0011279827
p740
g406
sVfr0007010632
p741
Vhttp://www.bnpparibas-ip.fr/investisseur-prive-particulier/fundsheet/portefeuilles-diversifies-europe/camgestion-ep-classique-d-fr0007010632
p742
sVlu0095613823
p743
g301
sVlu0099625146
p744
Vhttp://www.bnpparibas-ip.fr/investisseur-prive-particulier/fundsheet/obligations-internationales/parvest-flexible-bond-europe-corporate-classic-c-lu0099625146
p745
sVlu0107049875
p746
g346
sVfr0011538230
p747
Vhttp://www.bnpparibas-ip.fr/investisseur-prive-particulier/fundsheet/actions-europeennes/bnp-paribas-indice-euro-classic-c-fr0011538230
p748
sVlu0540527073
p749
Vhttp://www.bnpparibas-ip.fr/investisseur-prive-particulier/fundsheet/obligations-europeennes/bnp-paribas-flexi-i-bond-government-euro-restricted-classic-c-lu0540527073
p750
sVlu0111461124
p751
g290
sVlu0823391247
p752
Vhttp://www.bnpparibas-ip.fr/investisseur-prive-particulier/fundsheet/obligations-americaines/parvest-bond-usd-classic-eur-c-lu0823391080
p753
sVlu0159095446
p754
Vhttp://www.bnpparibas-ip.fr/investisseur-prive-particulier/fundsheet/diversifie-monde/bnp-paribas-l1-sustainable-active-allocation-classic-c-lu0087047089
p755
sVlu0075937911
p756
g525
sVfr0010077255
p757
Vhttp://www.bnpparibas-ip.fr/investisseur-prive-particulier/fundsheet/produits-structures/bnp-paribas-multistrategies-protection-80-classic-c-fr0010077255
p758
sVfr0010150458
p759
Vhttp://www.bnpparibas-ip.fr/investisseur-prive-particulier/fundsheet/actions-europeennes/bnp-paribas-easy-cac-40-ucits-etf-classique-d-fr0010150458
p760
sVlu1303481060
p761
Vhttp://www.bnpparibas-ip.fr/investisseur-prive-particulier/fundsheet/autres-fonds-actions-pays-developpes/bnp-paribas-l1-japan-classic-eur-c-lu1303481060
p762
sVfr0011222462
p763
Vhttp://www.bnpparibas-ip.fr/investisseur-prive-particulier/fundsheet/produits-de-taux-emergents/bnp-paribas-obliselect-terra-nova-2017-classic-c-fr0011222439
p764
sVlu0823444467
p765
Vhttp://www.bnpparibas-ip.fr/investisseur-prive-particulier/fundsheet/immobilier-monde/parvest-real-estate-securities-world-classic-c-lu0823444111
p766
sVlu0111478524
p767
g4
sVlu0194435318
p768
g335
sVno0010668114
p769
Vhttp://www.bnpparibas-ip.fr/investisseur-prive-particulier/fundsheet/obligations-europeennes/alfred-berg-hoyrente-classic-eur-d-no0010668114
p770
sVlu0823391080
p771
g753
sVlu0531997046
p772
g166
sVlu0159091882
p773
g502
sVlu0111478441
p774
g78
sVfr0010248310
p775
Vhttp://www.bnpparibas-ip.fr/investisseur-prive-particulier/fundsheet/actions-europeennes/cnp-actions-europe-schroders-a-h-fr0010248310
p776
sVfr0010077859
p777
Vhttp://www.bnpparibas-ip.fr/investisseur-prive-particulier/fundsheet/actions-europeennes/bnp-paribas-midcap-france-classic-c-fr0010616177
p778
sVlu0132152785
p779
g166
sVlu0823404248
p780
g294
sVlu0823428007
p781
g517
sVlu0066794479
p782
g183
sVlu0823430326
p783
g96
sVlu0823394001
p784
g301
sVlu0828230937
p785
g364
sVlu1291101985
p786
g443
sVlu0823391833
p787
g147
sVlu0111451240
p788
g264
sVlu0212175060
p789
g54
sVlu0823430243
p790
g96
sVlu0131211418
p791
Vhttp://www.bnpparibas-ip.fr/investisseur-prive-particulier/fundsheet/obligations-europeennes/parvest-bond-euro-corporate-classic-c-lu0131210360
p792
sVlu0283465069
p793
g753
sVfr0010116541
p794
Vhttp://www.bnpparibas-ip.fr/investisseur-prive-particulier/fundsheet/actions-europeennes/bnp-paribas-actions-euroland-classic-c-fr0010115410
p795
sVfr0013230232
p796
Vhttp://www.bnpparibas-ip.fr/investisseur-prive-particulier/fundsheet/obligations-europeennes/bnp-paribas-credit-12-m-classic-c-fr0013230232
p797
sVlu1049885806
p798
g421
sVlu0823431050
p799
g346
sVlu1291109293
p800
Vhttp://www.bnpparibas-ip.fr/investisseur-prive-particulier/fundsheet/actions-internationales/bnp-paribas-easy-nmx-30-infrastructure-global-ucits-etf-c-lu1291109293
p801
sVlu0547770783
p802
g717
sVlu0212180813
p803
g732
sVlu0087047089
p804
g755
sVfr0007045901
p805
Vhttp://www.bnpparibas-ip.fr/investisseur-prive-particulier/fundsheet/diversifie-monde/gestion-equilibre-international-classic-c-fr0007045901
p806
sVlu0265291822
p807
Vhttp://www.bnpparibas-ip.fr/investisseur-prive-particulier/fundsheet/obligations-convertibles-europeennes/parvest-convertible-bond-europe-small-cap-classic-c-lu0265291665
p808
sVlu1049884585
p809
g543
sVlu0265313816
p810
g162
sVlu0075933175
p811
g198
sVlu0116160465
p812
g218
sVlu0823408660
p813
g249
sVlu1056591487
p814
g553
sVlu1022400060
p815
g448
sVfr0010688077
p816
g576
sVlu0823429401
p817
g618
sVlu0111465547
p818
g745
sVfr0011383538
p819
Vhttp://www.bnpparibas-ip.fr/investisseur-prive-particulier/fundsheet/marche-monetaire-eur/bnp-paribas-invest-3-mois-classic-c-fr0010209916
p820
sVfr0007026448
p821
Vhttp://www.bnpparibas-ip.fr/investisseur-prive-particulier/fundsheet/diversifie-monde/selection-dynamique-europe-classic-c-fr0007026448
p822
sVlu0823429583
p823
g618
sVfr0010137166
p824
Vhttp://www.bnpparibas-ip.fr/investisseur-prive-particulier/fundsheet/actions-europeennes/bnp-paribas-euro-valeurs-durables-classic-c-fr0010137166
p825
sVlu0823404750
p826
g294
sVlu1022392028
p827
g457
sVfr0010076430
p828
Vhttp://www.bnpparibas-ip.fr/investisseur-prive-particulier/fundsheet/diversifie-monde/bnp-paribas-selection-dynamique-pea-classic-c-fr0010076430
p829
sVfr0010390807
p830
Vhttp://www.bnpparibas-ip.fr/investisseur-prive-particulier/fundsheet/diversifie-monde/bnp-paribas-retraite-responsable-2025-2027-p-c-fr0010390807
p831
sVfr0012538106
p832
Vhttp://www.bnpparibas-ip.fr/investisseur-prive-particulier/fundsheet/actions-internationales/bnp-paribas-strategie-privee-actions-internationales-classic-c-fr0012538106
p833
sVlu0111479092
p834
g525
sVlu0075933415
p835
g198
sVfr0010325597
p836
Vhttp://www.bnpparibas-ip.fr/investisseur-prive-particulier/fundsheet/actions-internationales/bnp-paribas-telecoms-classic-c-fr0010325597
p837
sVlu1022394826
p838
g461
sVlu0823394936
p839
g202
sVlu1056594408
p840
g193
sVlu0531774841
p841
g218
sVlu0823381362
p842
g465
sVfr0010319434
p843
Vhttp://www.bnpparibas-ip.fr/investisseur-prive-particulier/fundsheet/actions-europeennes/camgestion-actions-croissance-classic-c-fr0010319434
p844
sVlu1049884825
p845
g543
sVlu0823383145
p846
g658
sVlu0167237543
p847
g717
sVfr0011238898
p848
Vhttp://www.bnpparibas-ip.fr/investisseur-prive-particulier/fundsheet/produits-structures/3-dyneurope-classic-c-fr0011238898
p849
sVlu0950374610
p850
g120
sVlu0823449185
p851
g259
sVfr0007068044
p852
Vhttp://www.bnpparibas-ip.fr/investisseur-prive-particulier/fundsheet/actions-europeennes/bnp-paribas-easy-stoxx-europe-600-telecommunications-ucits-etf-classique-c-fr0007068044
p853
sVfr0007031562
p854
Vhttp://www.bnpparibas-ip.fr/investisseur-prive-particulier/fundsheet/actions-internationales/multigerants-dynamique-classique-c-fr0007031562
p855
sVlu1291097779
p856
g615
sVlu0823386163
p857
g242
sVfr0010108977
p858
Vhttp://www.bnpparibas-ip.fr/investisseur-prive-particulier/fundsheet/actions-internationales/bnp-paribas-actions-monde-classic-c-fr0010108977
p859
sVlu1353183533
p860
Vhttp://www.bnpparibas-ip.fr/investisseur-prive-particulier/fundsheet/rendement-absolu/theam-quant-multi-asset-diversified-c-capitalisationlu1353183533
p861
sVlu0194604798
p862
g721
sVlu0823395669
p863
g202
sVlu0249332452
p864
g255
sVlu0087045034
p865
g613
sVlu1151728596
p866
g527
sVlu0823444897
p867
g766
sVfr0007074208
p868
Vhttp://www.bnpparibas-ip.fr/investisseur-prive-particulier/fundsheet/actions-europeennes/camgestion-actions-rendement-classique-h-fr0007074208
p869
sVlu1329018219
p870
g421
sVlu0172350877
p871
g16
sVlu0823432025
p872
g151
sVfr0011102805
p873
Vhttp://www.bnpparibas-ip.fr/investisseur-prive-particulier/fundsheet/produits-structures/protected-trend-fund-a-c-fr0011102805
p874
sVlu0823380984
p875
g465
sVfr0011908094
p876
g329
sVfr0010077172
p877
Vhttp://www.bnpparibas-ip.fr/investisseur-prive-particulier/fundsheet/actions-europeennes/bnp-paribas-midcap-europe-classic-c-fr0010077172
p878
sVlu1291102447
p879
g443
sVfr0011314319
p880
g310
sVfr0010128587
p881
g500
sVlu0531757754
p882
g613
sVlu0282388437
p883
g547
sVfr0011132380
p884
Vhttp://www.bnpparibas-ip.fr/investisseur-prive-particulier/fundsheet/produits-structures/bnp-paribas-4-dragons-protection-95-2017-classic-c-fr0011132380
p885
sVlu0531774767
p886
g218
sVlu1165137149
p887
g50
sVlu0265289339
p888
Vhttp://www.bnpparibas-ip.fr/investisseur-prive-particulier/fundsheet/obligations-europeennes/parvest-sustainable-bond-euro-corporate-classic-c-lu0265288877
p889
sVlu0823449938
p890
g259
sVlu1049886283
p891
g421
sVlu0531768959
p892
g38
sVlu0107048042
p893
g335
sVlu1377382103
p894
Vhttp://www.bnpparibas-ip.fr/investisseur-prive-particulier/fundsheet/actions-europeennes/bnp-paribas-easy-equity-quality-europe-ucits-etf-c-lu1377382103
p895
sVfr0007068036
p896
Vhttp://www.bnpparibas-ip.fr/investisseur-prive-particulier/fundsheet/actions-europeennes/bnp-paribas-easy-stoxx-europe-600-utilities-ucits-etf-classique-c-fr0007068036
p897
sVfr0010107235
p898
g498
sVfr0012722882
p899
g34
sVfr0010715326
p900
Vhttp://www.bnpparibas-ip.fr/investisseur-prive-particulier/fundsheet/diversifie-monde/camgestion-g-n-ration-avenir-classic-c-fr0010715326
p901
sVlu1291109533
p902
g564
sVlu0012182639
p903
g4
sVlu0823402119
p904
g337
sVlu1235104020
p905
g645
sVlu1291096375
p906
Vhttp://www.bnpparibas-ip.fr/investisseur-prive-particulier/fundsheet/obligations-internationales/bnp-paribas-easy-markit-iboxx-global-developed-markets-liquid-100-high-yield-capped-track-privilege-rh-eur-capitalisationlu1291096375
p907
sVlu1151729727
p908
Vhttp://www.bnpparibas-ip.fr/investisseur-prive-particulier/fundsheet/actions-internationales/bnp-paribas-l1-smart-food-classic-c-lu1151729644
p909
sVlu1080341065
p910
g494
sVlu1104114647
p911
g100
sVlu0930020671
p912
g578
sVlu1165135440
p913
Vhttp://www.bnpparibas-ip.fr/investisseur-prive-particulier/fundsheet/actions-internationales/parvest-aqua-classic-c-lu1165135440
p914
sVlu0111493838
p915
g222
sVlu1163234351
p916
g177
sVlu0823385355
p917
g242
sVlu0282880698
p918
g234
sVlu0823414049
p919
g509
sVlu0212188121
p920
g12
sVlu1291099395
p921
g728
sVlu1492558348
p922
g543
sVfr0010129742
p923
g500
sVlu0111549480
p924
g40
sVlu0540527230
p925
g750
sVlu0251807045
p926
g558
sVfr0013153228
p927
g506
sVlu0010012721
p928
g379
sVlu1291094321
p929
g708
sVfr0011482686
p930
Vhttp://www.bnpparibas-ip.fr/investisseur-prive-particulier/fundsheet/marche-monetaire-eur/bnp-paribas-mois-isr-classic-c-fr0011482686
p931
sVlu0012186549
p932
Vhttp://www.bnpparibas-ip.fr/investisseur-prive-particulier/fundsheet/marche-monetaire-usd/parvest-money-market-usd-classic-c-lu0012186622
p933
sVfr0011257310
p934
g467
sVlu0194438841
p935
g264
sVlu0531998440
p936
Vhttp://www.bnpparibas-ip.fr/investisseur-prive-particulier/fundsheet/diversifie-monde/bnp-paribas-l1-diversified-world-stability-classic-c-lu0132151621
p937
sVlu0823444624
p938
g766
sVlu0823379895
p939
g46
sVlu1022394313
p940
g461
sVlu0069970746
p941
g264
sVlu1260147084
p942
Vhttp://www.bnpparibas-ip.fr/investisseur-prive-particulier/fundsheet/rendement-absolu/parworld-absolute-return-equity-neutral-classic-c-lu1260147084
p943
sVlu1104109647
p944
g301
sVlu0823387641
p945
g255
sVlu0823399810
p946
g205
sVlu1235104293
p947
g645
sVlu1049885988
p948
g421
sVlu0192223062
p949
g647
sVlu1163234518
p950
g177
sVlu0823416093
p951
g20
sVlu0823435127
p952
Vhttp://www.bnpparibas-ip.fr/investisseur-prive-particulier/fundsheet/actions-americaines/parvest-equity-usa-growth-classic-eur-c-lu0823434237
p953
sVfr0010629147
p954
Vhttp://www.bnpparibas-ip.fr/investisseur-prive-particulier/fundsheet/actions-europeennes/cortal-consors-open-croissance-classic-c-fr0010629147
p955
sVfr0013041530
p956
g482
sVlu1104112195
p957
Vhttp://www.bnpparibas-ip.fr/investisseur-prive-particulier/fundsheet/actions-emergentes/parvest-equity-new-frontiers-classic-c-lu1104111890
p958
sVlu0111481668
p959
g68
sVlu0258897114
p960
Vhttp://www.bnpparibas-ip.fr/investisseur-prive-particulier/fundsheet/produits-structures/bnp-paribas-plan-international-derivatives-classic-c-lu0258897114
p961
sVfr0013127164
p962
g267
sVlu0823434740
p963
g953
sVlu0823389696
p964
g70
sVlu0823408231
p965
g249
sVlu0116160549
p966
g218
sVlu0823409809
p967
g278
sVlu0823419782
p968
Vhttp://www.bnpparibas-ip.fr/investisseur-prive-particulier/fundsheet/actions-internationales/parvest-equity-world-materials-classic-c-lu0823419436
p969
sVfr0012443174
p970
g261
sVlu1022808577
p971
g448
sVlu0823450605
p972
g259
sVlu0823409718
p973
g278
sVfr0010077206
p974
Vhttp://www.bnpparibas-ip.fr/investisseur-prive-particulier/fundsheet/produits-structures/bnp-paribas-actions-euro-protege-classic-c-fr0010077206
p975
sVlu0190305630
p976
g402
sVfr0010376798
p977
Vhttp://www.bnpparibas-ip.fr/investisseur-prive-particulier/fundsheet/diversifie-monde/fundquest-balanced-classic-c-fr0010376798
p978
sVlu1291099478
p979
g728
sVlu0531758133
p980
g379
sVfr0011908078
p981
g329
sVlu0111453535
p982
g198
sVlu0111482476
p983
g68
sVfr0012591592
p984
Vhttp://www.bnpparibas-ip.fr/investisseur-prive-particulier/fundsheet/diversifie-monde/bnpp-european-flexible-income-a-h-fr0012591600
p985
sVlu0111469705
p986
g610
sVlu1377381717
p987
g2
sVfr0013176344
p988
g320
sVbe0146937793
p989
Vhttp://www.bnpparibas-ip.fr/investisseur-prive-particulier/fundsheet/diversifie-monde/bnp-paribas-b-strategy-global-neutral-classic-d-be0146937793
p990
sVlu1056591990
p991
g553
sVlu1377381980
p992
Vhttp://www.bnpparibas-ip.fr/investisseur-prive-particulier/fundsheet/actions-americaines/bnp-paribas-easy-equity-low-vol-us-ucits-etf-c-lu1377381980
p993
sVlu0111444898
p994
g335
sVlu0823429666
p995
g618
sVlu0930019319
p996
g305
sVfr0012443182
p997
g261
sVlu0879078565
p998
g753
sVfr0010028779
p999
Vhttp://www.bnpparibas-ip.fr/investisseur-prive-particulier/fundsheet/actions-americaines/bnp-paribas-actions-usa-classic-c-fr0010028779
p1000
sVlu1165135796
p1001
g914
sVfr0010101493
p1002
Vhttp://www.bnpparibas-ip.fr/investisseur-prive-particulier/fundsheet/actions-europeennes/bnp-paribas-valeurs-francaises-classic-c-fr0010028902
p1003
sVfr0010098210
p1004
g534
sVfr0007044698
p1005
Vhttp://www.bnpparibas-ip.fr/investisseur-prive-particulier/fundsheet/diversifie-monde/borghese-finance-classique-c-fr0007044698
p1006
sVlu1235113872
p1007
Vhttp://www.bnpparibas-ip.fr/investisseur-prive-particulier/fundsheet/actions-americaines/theam-quant-equity-us-income-protected-protected-i-c-lu1235113872
p1008
sVlu1342920672
p1009
Vhttp://www.bnpparibas-ip.fr/investisseur-prive-particulier/fundsheet/portefeuilles-diversifies-emergents/parvest-multi-asset-income-emerging-classic-eur-c-lu1342920672
p1010
sVlu0212176621
p1011
g54
sVno0010446552
p1012
g770
sVlu0190306364
p1013
g402
sVlu1049888578
p1014
g128
sVlu0083138064
p1015
g290
sVfr0011540152
p1016
Vhttp://www.bnpparibas-ip.fr/investisseur-prive-particulier/fundsheet/produits-structures/bnp-paribas-environnement-2019-classic-c-fr0011540152
p1017
sVlu1163234609
p1018
g177
sVlu1291091228
p1019
Vhttp://www.bnpparibas-ip.fr/investisseur-prive-particulier/fundsheet/actions-europeennes/bnp-paribas-easy-ftse-epra-nareit-developed-europe-ucits-etf-qd-d-lu1291091228
p1020
sVlu0360646680
p1021
Vhttp://www.bnpparibas-ip.fr/investisseur-prive-particulier/fundsheet/actions-europeennes/parvest-flexible-equity-europe-classic-c-lu0360646680
p1022
sVbe0146935771
p1023
Vhttp://www.bnpparibas-ip.fr/investisseur-prive-particulier/fundsheet/diversifie-monde/bnp-paribas-b-strategy-global-defensive-classic-c-be0146934766
p1024
sVlu0823392302
p1025
g147
sVbe0163305544
p1026
Vhttp://www.bnpparibas-ip.fr/investisseur-prive-particulier/fundsheet/diversifie-monde/bnp-paribas-b-strategy-global-dynamic-classic-d-be0163305544
p1027
sVfr0010655597
p1028
Vhttp://www.bnpparibas-ip.fr/investisseur-prive-particulier/fundsheet/actions-europeennes/bnp-paribas-easy-low-carbon-100-europe-ucits-etf-classique-c-fr0010655597
p1029
sVlu0823425912
p1030
g181
sVlu0823426720
p1031
g181
sVlu0823447643
p1032
g627
sVfr0010137174
p1033
g825
sVlu0282274348
p1034
g247
sVlu0283519337
p1035
g346
sVlu1049887331
p1036
g421
sVfr0000442014
p1037
g638
sVfr0010997858
p1038
Vhttp://www.bnpparibas-ip.fr/investisseur-prive-particulier/fundsheet/diversifie-monde/camgestion-g-n-ration-2026-30-classic-c-fr0010997858
p1039
sVlu0823444970
p1040
g766
sVlu1022396367
p1041
g202
sVlu0265313147
p1042
g251
sVlu1120436248
p1043
g341
sVlu0823389001
p1044
g173
sVfr0007433669
p1045
Vhttp://www.bnpparibas-ip.fr/investisseur-prive-particulier/fundsheet/diversifie-monde/gf-euro-convictions-classique-c-fr0007433669
p1046
sVlu1120436164
p1047
g341
sVlu1291100664
p1048
Vhttp://www.bnpparibas-ip.fr/investisseur-prive-particulier/fundsheet/actions-europeennes/bnp-paribas-easy-msci-europe-ex-uk-ex-controversial-weapons-track-classic-c-lu1291100151
p1049
sVlu1022398819
p1050
g269
sVfr0007068077
p1051
Vhttp://www.bnpparibas-ip.fr/investisseur-prive-particulier/fundsheet/actions-europeennes/bnp-paribas-easy-stoxx-europe-600-banks-ucits-etf-classique-c-fr0007068077
p1052
sVlu0879078482
p1053
g753
sVlu0823423032
p1054
g116
sVlu0823400840
p1055
g205
sVfr0010130765
p1056
Vhttp://www.bnpparibas-ip.fr/investisseur-prive-particulier/fundsheet/obligations-europeennes/bnp-paribas-obli-etat-classic-c-fr0010130765
p1057
sVlu0377063960
p1058
g440
sVfr0011742550
p1059
Vhttp://www.bnpparibas-ip.fr/investisseur-prive-particulier/fundsheet/matieres-premieres/theam-quant-dynamic-raw-materials-a-usd-c-fr0011742527
p1060
sVlu0823433429
p1061
g74
sVlu0823443493
p1062
g32
sVlu1291107917
p1063
g159
sVlu0212178916
p1064
g732
sVlu1151729644
p1065
g909
sVlu0159059996
p1066
g112
sVlu0930020325
p1067
Vhttp://www.bnpparibas-ip.fr/investisseur-prive-particulier/fundsheet/produits-structures/bnp-paribas-plan-easy-future-2033-classic-c-lu0930020168
p1068
sVlu0154246051
p1069
g558
sVfr0010076612
p1070
g149
sVlu1291091814
p1071
g226
sVfr0000294738
p1072
Vhttp://www.bnpparibas-ip.fr/investisseur-prive-particulier/fundsheet/marche-monetaire-eur/cardif-tresorerie-classic-c-fr0000294738
p1073
sVfr0007445119
p1074
Vhttp://www.bnpparibas-ip.fr/investisseur-prive-particulier/fundsheet/actions-emergentes/camgestion-emerging-bric-classique-c-fr0007445119
p1075
sVfr0010076943
p1076
g114
sVfr0011550193
p1077
g179
sVlu0225845535
p1078
g234
sVlu1104108755
p1079
g56
sVfr0010714253
p1080
g6
sVlu1291103338
p1081
g549
sVlu0662594125
p1082
g301
sVfr0010077412
p1083
Vhttp://www.bnpparibas-ip.fr/investisseur-prive-particulier/fundsheet/actions-europeennes/bnp-paribas-developpement-humain-classic-c-fr0010077412
p1084
sVlu0131210790
p1085
g792
sVfr0010716472
p1086
Vhttp://www.bnpparibas-ip.fr/investisseur-prive-particulier/fundsheet/diversifie-monde/camgestion-g-n-ration-2016-20-classic-c-fr0010716472
p1087
sVlu0930018857
p1088
Vhttp://www.bnpparibas-ip.fr/investisseur-prive-particulier/fundsheet/produits-structures/bnp-paribas-plan-easy-future-2018-classic-c-lu0930018691
p1089
sVlu1022394743
p1090
g461
sVfr0010077388
p1091
g153
sVlu1342920755
p1092
g1010
sVfr0011576610
p1093
Vhttp://www.bnpparibas-ip.fr/investisseur-prive-particulier/fundsheet/obligations-europeennes/bnp-paribas-deposit-moyen-terme-plus-classic-c-fr0011576610
p1094
sVfr0010315093
p1095
Vhttp://www.bnpparibas-ip.fr/investisseur-prive-particulier/fundsheet/produits-structures/bnp-paribas-protection-monde-classic-c-fr0010315093
p1096
sVlu0823398176
p1097
g459
sVlu1049895516
p1098
g540
sVlu0107086562
p1099
g100
sVlu0190304583
p1100
g402
sVfr0010106849
p1101
g210
sVfr0007068101
p1102
Vhttp://www.bnpparibas-ip.fr/investisseur-prive-particulier/fundsheet/actions-europeennes/bnp-paribas-easy-stoxx-europe-600-insurance-ucits-etf-classique-c-fr0007068101
p1103
sVlu0930020168
p1104
g1068
sVlu0823404834
p1105
g294
sVlu0823413587
p1106
g509
sVfr0007041496
p1107
Vhttp://www.bnpparibas-ip.fr/investisseur-prive-particulier/fundsheet/diversifie-monde/parjet-dynamique-classique-c-fr0007041496
p1108
sVlu0823410724
p1109
g48
sVlu0265288950
p1110
g889
sVfr0011383553
p1111
Vhttp://www.bnpparibas-ip.fr/investisseur-prive-particulier/fundsheet/marche-monetaire-eur/bnp-paribas-tresorerie-3-mois-classic-c-fr0010125880
p1112
sVlu0823447999
p1113
g627
sVlu1022400813
p1114
g448
sVlu0251806666
p1115
g48
sVlu1049888149
p1116
g421
sVlu0251804968
p1117
g335
sVfr0010021576
p1118
g681
sVlu0823381958
p1119
g59
sVlu0823380802
p1120
g465
sVfr0010536144
p1121
g748
sVfr0011046085
p1122
Vhttp://www.bnpparibas-ip.fr/investisseur-prive-particulier/fundsheet/marche-monetaire-eur/bnp-paribas-deposit-classic-c-fr0011046085
p1123
sVlu0950372838
p1124
g358
sVlu0823413074
p1125
g509
sVlu0823411029
p1126
g48
sVlu0089290844
p1127
g610
sVlu1104111114
p1128
g732
sVlu0823425086
p1129
g429
sVlu0251809090
p1130
g346
sVfr0007074356
p1131
Vhttp://www.bnpparibas-ip.fr/investisseur-prive-particulier/fundsheet/actions-internationales/icp-evolution-classique-h-fr0007074356
p1132
sVlu0406803063
p1133
g86
sVno0010668106
p1134
g770
sVlu1104111890
p1135
g958
sVlu0406803147
p1136
g86
sVlu1049896084
p1137
g540
sVfr0011501659
p1138
Vhttp://www.bnpparibas-ip.fr/investisseur-prive-particulier/fundsheet/marche-monetaire-eur/invest-monetaire-4-classic-c-fr0011501659
p1139
sVlu0823428346
p1140
g618
sVlu0823425243
p1141
g429
sVlu0823411375
p1142
g48
sVlu0823416416
p1143
g20
sVlu0265308063
p1144
g889
sVlu0828231075
p1145
g364
sVfr0007035365
p1146
g61
sVlu0823389266
p1147
g173
sVlu1049888651
p1148
g128
sVlu0107069048
p1149
g78
sVlu0823422141
p1150
g288
sVlu0265268689
p1151
g162
sVlu1291104062
p1152
Vhttp://www.bnpparibas-ip.fr/investisseur-prive-particulier/fundsheet/actions-americaines/bnp-paribas-easy-msci-north-america-ex-controversial-weapons-track-classic-c-lu1291103684
p1153
sVlu1291103684
p1154
g1153
sVfr0010028969
p1155
g196
sVlu0823390439
p1156
g70
sVlu0774755085
p1157
g438
sVlu0111549308
p1158
g40
sVfr0010925123
p1159
Vhttp://www.bnpparibas-ip.fr/investisseur-prive-particulier/fundsheet/produits-structures/bnp-paribas-europe-plus-2019-classic-c-fr0010925123
p1160
sVfr0010177527
p1161
Vhttp://www.bnpparibas-ip.fr/investisseur-prive-particulier/fundsheet/actions-internationales/camgestion-avenir-investissement-classic-c-fr0010177527
p1162
sVlu0774754435
p1163
Vhttp://www.bnpparibas-ip.fr/investisseur-prive-particulier/fundsheet/actions-europeennes/parworld-quant-equity-europe-guru-classic-c-lu0774754435
p1164
sVlu0879078136
p1165
g753
sVfr0013140571
p1166
Vhttp://www.bnpparibas-ip.fr/investisseur-prive-particulier/fundsheet/actions-zone-euro/theam-quant-equity-eurozone-income-defensive-j-c-fr0013140571
p1167
sVlu1056594317
p1168
g193
sVfr0012740934
p1169
Vhttp://www.bnpparibas-ip.fr/investisseur-prive-particulier/fundsheet/actions-emergentes/bnp-paribas-easy-next-11-ucits-etf-eur-c-c-fr0012739423
p1170
sVlu0089277312
p1171
g247
sVlu0823426308
p1172
g181
sVlu0823382253
p1173
g59
sVlu0531995693
p1174
g502
sVfr0010263475
p1175
g776
sVfr0007056312
p1176
Vhttp://www.bnpparibas-ip.fr/investisseur-prive-particulier/fundsheet/diversifie-monde/gf-patrimoine-convictions-classique-c-fr0007056312
p1177
sVlu1104112609
p1178
g48
sVlu0823419436
p1179
g969
sVfr0012739928
p1180
g1170
sVlu0930019079
p1181
g220
sVfr0011550177
p1182
g482
sVlu0111464060
p1183
g247
sVlu0167239168
p1184
g324
sVlu0107058785
p1185
g264
sVlu0823385272
p1186
g242
sVfr0000421802
p1187
Vhttp://www.bnpparibas-ip.fr/investisseur-prive-particulier/fundsheet/diversifie-monde/carrefour-selection-classique-h-fr0000421802
p1188
sVlu0176506888
p1189
g379
sVfr0010116574
p1190
g216
sVlu0282388783
p1191
g547
sVlu1049889030
p1192
g128
sVlu0531757911
p1193
g379
sVlu0282274421
p1194
g247
sVlu0249367086
p1195
g255
sVlu1104113326
p1196
g98
sVfr0010147512
p1197
g412
sVlu0823407936
p1198
g249
sVlu1481201611
p1199
g895
sVfr0010133892
p1200
Vhttp://www.bnpparibas-ip.fr/investisseur-prive-particulier/fundsheet/obligations-internationales/bnp-paribas-obli-monde-classic-c-fr0010133892
p1201
sVfr0007020094
p1202
Vhttp://www.bnpparibas-ip.fr/investisseur-prive-particulier/fundsheet/marche-monetaire-eur/invest-monetaire-3-classic-c-fr0007020094
p1203
sVlu0038743380
p1204
g100
sVlu1120431108
p1205
g514
sVlu0245286934
p1206
g360
sVfr0011351717
p1207
Vhttp://www.bnpparibas-ip.fr/investisseur-prive-particulier/fundsheet/diversifie-monde/bnp-paribas-retraite-responsable-2031-2033-p-c-fr0011351717
p1208
sVfr0010209916
p1209
g820
sVlu0890553851
p1210
g953
sVlu0823434070
p1211
g74
sVlu0281906387
p1212
g251
sVlu1165136505
p1213
g36
sVlu0236672407
p1214
Vhttp://www.bnpparibas-ip.fr/investisseur-prive-particulier/fundsheet/diversifie-monde/bnp-paribas-quam-fund-low-vol-classic-c-lu0236672407
p1215
sVlu0012181748
p1216
g346
sVlu1481201298
p1217
g993
sVfr0011628288
p1218
g109
sVlu0159093748
p1219
g937
sVlu0823397103
p1220
g459
sVlu0111460589
p1221
g933
sVfr0011774686
p1222
Vhttp://www.bnpparibas-ip.fr/investisseur-prive-particulier/fundsheet/obligations-europeennes/bnp-paribas-obli-entreprises-classic-c-fr0011774686
p1223
sVlu0265292556
p1224
g808
sVlu1291101126
p1225
g640
sVlu0823408157
p1226
g249
sVlu0956005572
p1227
g120
sVfr0011585546
p1228
g104
sVlu0823411532
p1229
g48
sVfr0011175645
p1230
g216
sVlu0111483102
p1231
g68
sVlu1022392291
p1232
g457
sVlu0823411961
p1233
g164
sVlu1481201538
p1234
g224
sVlu1481200308
p1235
Vhttp://www.bnpparibas-ip.fr/investisseur-prive-particulier/fundsheet/obligations-internationales/bnp-paribas-easy-barclays-us-treasury-ucits-etf-c-lu1481200308
p1236
sVfr0012088870
p1237
Vhttp://www.bnpparibas-ip.fr/investisseur-prive-particulier/fundsheet/diversifie-monde/bnp-paribas-convictions-a-c-fr0012088870
p1238
sVlu0270761579
p1239
g112
sVlu0132152199
p1240
g937
sVfr0011210129
p1241
Vhttp://www.bnpparibas-ip.fr/investisseur-prive-particulier/fundsheet/diversifie-monde/bnp-paribas-selection-flexible-classic-c-fr0011210129
p1242
sVlu0823407001
p1243
g477
sVfr0010168351
p1244
Vhttp://www.bnpparibas-ip.fr/investisseur-prive-particulier/fundsheet/actions-europeennes/camgestion-situations-sp-ciales-classique-c-fr0010168351
p1245
sVlu0069970662
p1246
g264
sVfr0010732693
p1247
Vhttp://www.bnpparibas-ip.fr/investisseur-prive-particulier/fundsheet/portefeuilles-diversifies-europe/camgestion-europe-offensif-classique-c-fr0010732693
p1248
sVlu0831546592
p1249
Vhttp://www.bnpparibas-ip.fr/investisseur-prive-particulier/fundsheet/actions-internationales/bnp-paribas-l1-equity-world-aqua-classic-c-lu0831546592
p1250
sVlu1049895193
p1251
g540
sVlu0823404594
p1252
g294
sVlu1353183616
p1253
g861
sVlu1291108642
p1254
g631
sVlu0265267285
p1255
g251
sVlu0423950210
p1256
g118
sVlu0177332730
p1257
g352
sVfr0012169860
p1258
g651
sVlu0177332227
p1259
g352
sVlu0823415442
p1260
g232
sVfr0011829225
p1261
g736
sVlu0823429823
p1262
g96
sVlu0823434401
p1263
g953
sVfr0011222439
p1264
g764
sVlu0823434237
p1265
g953
sVlu0823416929
p1266
g414
sVlu1291105895
p1267
g679
sVlu0111547609
p1268
g521
sVlu0158989177
p1269
g218
sVfr0010703355
p1270
Vhttp://www.bnpparibas-ip.fr/investisseur-prive-particulier/fundsheet/actions-europeennes/maif-investissement-responsable-europe-p-c-fr0010703355
p1271
sVlu0823438733
p1272
g42
sVlu0823450514
p1273
g259
sVfr0011150010
p1274
Vhttp://www.bnpparibas-ip.fr/investisseur-prive-particulier/fundsheet/produits-structures/protected-target-alpha-fund-a-c-fr0011150010
p1275
sVfr0011482694
p1276
g931
sVlu0547771328
p1277
g354
sVlu0823426993
p1278
g181
sVfr0012459378
p1279
Vhttp://www.bnpparibas-ip.fr/investisseur-prive-particulier/fundsheet/matieres-premieres/theam-quant-raw-materials-income-i-usd-c-fr0012902278
p1280
sVlu0823420954
p1281
g969
sVlu0012182399
p1282
g78
sVlu0225846426
p1283
g234
sVfr0012704856
p1284
Vhttp://www.bnpparibas-ip.fr/investisseur-prive-particulier/fundsheet/obligations-europeennes/bnp-paribas-lcr-1-classic-c-fr0012704856
p1285
sVlu0823380638
p1286
g521
sVfr0007046123
p1287
Vhttp://www.bnpparibas-ip.fr/investisseur-prive-particulier/fundsheet/diversifie-monde/gestion-dynamique-international-classic-c-fr0007046123
p1288
sVlu1291100409
p1289
g1049
sVfr0007448568
p1290
Vhttp://www.bnpparibas-ip.fr/investisseur-prive-particulier/fundsheet/autres-actifs-diversifies-pays-developpes/fracom-classique-d-fr0007448568
p1291
sVfr0010102095
p1292
Vhttp://www.bnpparibas-ip.fr/investisseur-prive-particulier/fundsheet/actions-europeennes/camgestion-rendactis-classique-h-fr0010102095
p1293
sVlu0107087610
p1294
g301
sVlu1291100151
p1295
g1049
sVfr0012443190
p1296
g261
sVlu1022401118
p1297
g448
sVlu0265288877
p1298
g889
sVlu0823401905
p1299
g337
sVlu0823418545
p1300
g145
sVlu0107072935
p1301
g525
sVfr0013146347
p1302
Vhttp://www.bnpparibas-ip.fr/investisseur-prive-particulier/fundsheet/obligations-internationales/theam-quant-fi-high-vol-super-x-c-fr0013146347
p1303
sVfr0012598530
p1304
g14
sVfr0007068093
p1305
Vhttp://www.bnpparibas-ip.fr/investisseur-prive-particulier/fundsheet/actions-europeennes/bnp-paribas-easy-stoxx-europe-600-health-care-ucits-etf-classique-c-fr0007068093
p1306
sVlu0131210360
p1307
g792
sVlu1104115610
p1308
g588
sVlu1022400656
p1309
g448
sVlu0823378905
p1310
g46
sVbe0146934766
p1311
g1024
sVlu0012181318
p1312
g335
sVfr0013217767
p1313
g1167
sVlu1303481904
p1314
Vhttp://www.bnpparibas-ip.fr/investisseur-prive-particulier/fundsheet/actions-internationales/bnp-paribas-l1-usa-classic-c-lu1303481904
p1315
sVfr0012740975
p1316
g344
sVlu1104116345
p1317
g588
sVlu1303480849
p1318
g762
sVfr0013127156
p1319
g267
sVlu0531998010
p1320
g755
sVlu1353195891
p1321
Vhttp://www.bnpparibas-ip.fr/investisseur-prive-particulier/fundsheet/actions-europeennes/theam-quant-equity-europe-climate-care-c-capitalisationlu1353195891
p1322
sVlu0823407266
p1323
g477
sVlu1104116261
p1324
g588
sVlu0087047162
p1325
g755
sVlu1049891796
p1326
g214
sVfr0011314285
p1327
g310
sVfr0010077230
p1328
Vhttp://www.bnpparibas-ip.fr/investisseur-prive-particulier/fundsheet/produits-structures/bnp-paribas-actions-monde-protege-classic-c-fr0010077230
p1329
sVlu0012181664
p1330
g346
sVfr0010155226
p1331
Vhttp://www.bnpparibas-ip.fr/investisseur-prive-particulier/fundsheet/actions-europeennes/camgestion-actions-france-classique-c-fr0010155226
p1332
sVlu1056593855
p1333
g89
sVfr0010712745
p1334
g384
sVlu0823420525
p1335
g969
sVfr0012686046
p1336
g376
sVlu0925122581
p1337
g558
sVlu1291108998
p1338
g631
sVfr0012740983
p1339
g344
sVlu0270761819
p1340
g18
sVlu1080341495
p1341
g494
sVlu0823382840
p1342
g658
sVfr0013176336
p1343
g320
sVlu0823387138
p1344
g242
sVlu0749572268
p1345
Vhttp://www.bnpparibas-ip.fr/investisseur-prive-particulier/fundsheet/obligations-europeennes/bnp-paribas-flexi-i-bond-euro-focus-corporate-classic-c-lu0749572268
p1346
sVlu0823427025
p1347
g181
sVlu1291097340
p1348
g615
sVfr0012892453
p1349
Vhttp://www.bnpparibas-ip.fr/investisseur-prive-particulier/fundsheet/produits-structures/athena-decembre-2023-classic-c-fr0012892453
p1350
sVfr0007031539
p1351
Vhttp://www.bnpparibas-ip.fr/investisseur-prive-particulier/fundsheet/diversifie-monde/multigerants-patrimoine-classique-c-fr0007031539
p1352
sVfr0007048160
p1353
Vhttp://www.bnpparibas-ip.fr/investisseur-prive-particulier/fundsheet/diversifie-monde/selection-equilibre-europe-classic-c-fr0007048160
p1354
sVlu0823430755
p1355
g96
sVlu0823435473
p1356
g953
sVlu0823444111
p1357
g766
sVlu1049884312
p1358
g543
sVlu1291108485
p1359
g631
sVfr0011572502
p1360
Vhttp://www.bnpparibas-ip.fr/investisseur-prive-particulier/fundsheet/diversifie-monde/fundquest-patrimoine-classic-c-fr0010986497
p1361
sVlu0251807987
p1362
g264
sVfr0013230216
p1363
g797
sVfr0012649275
p1364
Vhttp://www.bnpparibas-ip.fr/investisseur-prive-particulier/fundsheet/produits-structures/athena-aout-2023-classic-c-fr0012649275
p1365
sVlu0823421846
p1366
g288
sVfr0010250050
p1367
g625
sVlu1120436677
p1368
g341
sVlu0823427611
p1369
g517
sVfr0011693100
p1370
g109
sVfr0011534668
p1371
Vhttp://www.bnpparibas-ip.fr/investisseur-prive-particulier/fundsheet/obligations-europeennes/bnp-paribas-fixed-income-moderate-classic-c-fr0011534668
p1372
sVfr0012739423
p1373
g1170
sVfr0010376822
p1374
Vhttp://www.bnpparibas-ip.fr/investisseur-prive-particulier/fundsheet/diversifie-monde/fundquest-dynamic-classic-c-fr0010376822
p1375
sVfr0010378570
p1376
Vhttp://www.bnpparibas-ip.fr/investisseur-prive-particulier/fundsheet/actions-internationales/bnp-paribas-easy-dj-islamic-market-titans-100-ucits-etf-classique-h-fr0010378570
p1377
sVfr0010018341
p1378
Vhttp://www.bnpparibas-ip.fr/investisseur-prive-particulier/fundsheet/actions-europeennes/bnp-paribas-easy-stoxx-europe-600-construction-materials-ucits-etf-classique-c-fr0010018341
p1379
sVlu0075938133
p1380
g525
sVlu0925123555
p1381
g84
sVfr0010115410
p1382
g795
sVfr0010713610
p1383
g6
sVlu0154245756
p1384
g558
sVlu0265308576
p1385
g808
sVlu0930018691
p1386
g1089
sVlu0930019749
p1387
g671
sVlu0823434583
p1388
g953
sVlu0111493325
p1389
g222
sVlu0111491469
p1390
g222
sVlu0212196652
p1391
g558
sVlu0132151621
p1392
g937
sVlu0010001013
p1393
g18
sVlu0930020838
p1394
g445
sVlu0347711540
p1395
g253
sVfr0010576769
p1396
g386
sVlu0823411888
p1397
g164
sVlu0823432884
p1398
g151
sVlu0347712274
p1399
g253
sVlu0823413827
p1400
g509
sVfr0007068069
p1401
Vhttp://www.bnpparibas-ip.fr/investisseur-prive-particulier/fundsheet/actions-europeennes/bnp-paribas-easy-stoxx-europe-600-technology-ucits-etf-classique-c-fr0007068069
p1402
sVfr0010125880
p1403
g1112
sVfr0007031588
p1404
Vhttp://www.bnpparibas-ip.fr/investisseur-prive-particulier/fundsheet/diversifie-monde/multigerants-equilibre-classique-c-fr0007031588
p1405
sVlu0282389674
p1406
g547
sVfr0012902278
p1407
g1280
sVlu0131212812
p1408
g792
sVfr0010616177
p1409
g778
sVfr0010130773
p1410
g1057
sVlu0236673397
p1411
g185
sVfr0010146530
p1412
g412
sVlu0950373216
p1413
g358
sVlu0107059080
p1414
g183
sVlu0087045117
p1415
g613
sVlu0265266980
p1416
g251
sVfr0010986497
p1417
g1361
sVlu0325599487
p1418
g8
sVlu0823424279
p1419
g116
sVlu0823379622
p1420
g46
sVlu1235101356
p1421
g421
sVfr0013058021
p1422
Vhttp://www.bnpparibas-ip.fr/investisseur-prive-particulier/fundsheet/actions-emergentes/cardif-countries-convictions-classic-h-fr0013058021
p1423
sVlu0089276934
p1424
g247
sVlu1291104575
p1425
g1153
sVfr0012459386
p1426
g1280
sVfr0010018333
p1427
Vhttp://www.bnpparibas-ip.fr/investisseur-prive-particulier/fundsheet/actions-europeennes/bnp-paribas-easy-stoxx-europe-600-automobiles-parts-ucits-etf-classique-c-fr0010018333
p1428
sVfr0010112094
p1429
g452
sVfr0011314335
p1430
g281
sVfr0010052266
p1431
Vhttp://www.bnpparibas-ip.fr/investisseur-prive-particulier/fundsheet/obligations-convertibles-europeennes/perseis-avantage-convertibles-classic-c-fr0010052266
p1432
sVlu1165137495
p1433
g50
sVfr0011550185
p1434
g482
sVlu1049895862
p1435
g540
sVlu1056591727
p1436
g553
sVfr0007449327
p1437
Vhttp://www.bnpparibas-ip.fr/investisseur-prive-particulier/fundsheet/marche-monetaire-eur/invest-monetaire-2-classic-c-fr0007449327
p1438
sVlu0823414635
p1439
g232
sVlu0283510112
p1440
g183
sVlu0012186622
p1441
g933
sVlu0823413660
p1442
g509
sVlu0823404917
p1443
g294
sVfr0012208742
p1444
Vhttp://www.bnpparibas-ip.fr/investisseur-prive-particulier/fundsheet/produits-structures/c-quadrat-nachhaltigkeit-garant-80-a-eur-c-fr0012208742
p1445
sVlu1165135879
p1446
g914
sVfr0000980120
p1447
Vhttp://www.bnpparibas-ip.fr/investisseur-prive-particulier/fundsheet/actions-europeennes/bnp-paribas-floreal-100-classic-c-fr0000980120
p1448
sVlu0099624925
p1449
g745
sVlu1370930734
p1450
Vhttp://www.bnpparibas-ip.fr/investisseur-prive-particulier/fundsheet/actions-europeennes/bnp-paribas-l1-equity-europe-defi-classic-c-lu1370930734
p1451
sVfr0010077396
p1452
g463
sVlu0360646763
p1453
g1022
sVlu0212178676
p1454
g732
sVlu0823429153
p1455
g618
sVlu0823389936
p1456
g70
sVlu0265291665
p1457
g808
sVfr0012591600
p1458
g985
sVlu0823411706
p1459
g164
sVlu0823412696
p1460
g164
sVlu1377382285
p1461
g331
sVfr0010652743
p1462
Vhttp://www.bnpparibas-ip.fr/investisseur-prive-particulier/fundsheet/obligations-europeennes/camgestion-obligations-europe-classic-c-fr0010652743
p1463
sVlu0823387211
p1464
g242
sVlu0823428429
p1465
g618
sVfr0012169852
p1466
g651
sVlu0823400097
p1467
g205
sVlu0102023610
p1468
g52
sVlu1353195974
p1469
g1322
sVlu0081706904
p1470
g569
sVfr0013049426
p1471
Vhttp://www.bnpparibas-ip.fr/investisseur-prive-particulier/fundsheet/diversifie-monde/bnp-paribas-retraite-responsable-2034-2036-p-c-fr0013049426
p1472
sVlu0043962355
p1473
g38
sVfr0012892461
p1474
Vhttp://www.bnpparibas-ip.fr/investisseur-prive-particulier/fundsheet/produits-structures/athena-semi-airbag-decembre-2023-classic-c-fr0012892461
p1475
sVlu0107087297
p1476
g745
sVlu0212180490
p1477
g732
sVfr0010028902
p1478
g1003
sVfr0007496047
p1479
Vhttp://www.bnpparibas-ip.fr/investisseur-prive-particulier/fundsheet/marche-monetaire-eur/bnp-paribas-cash-invest-classic-c-fr0007496047
p1480
sVlu0823407423
p1481
g477
sVlu0823417810
p1482
g145
sVlu0132152439
p1483
g166
sVlu1120436321
p1484
g341
sVlu0823403356
p1485
g292
sVlu0823381446
p1486
g465
sVlu1353185314
p1487
g861
sVlu0265268762
p1488
g162
sVfr0012688430
p1489
g1094
sVfr0010174425
p1490
Vhttp://www.bnpparibas-ip.fr/investisseur-prive-particulier/fundsheet/obligations-europeennes/bnp-paribas-1-an-protection-99-classic-c-fr0010174425
p1491
sVlu0823388615
p1492
g173
sVlu1150259296
p1493
g410
sVfr0011742527
p1494
g1060
sVlu1080341818
p1495
g494
sVfr0011079524
p1496
Vhttp://www.bnpparibas-ip.fr/investisseur-prive-particulier/fundsheet/produits-structures/bnp-paribas-gestion-active-2-classic-c-fr0011079524
p1497
sVlu1104108243
p1498
g56
sVfr0011142074
p1499
Vhttp://www.bnpparibas-ip.fr/investisseur-prive-particulier/fundsheet/produits-structures/bnp-paribas-gestion-active-3-classic-c-fr0011142074
p1500
sVlu0823424782
p1501
g429
sVlu0823438220
p1502
g42
sVlu0749572425
p1503
g1346
sVfr0013073780
p1504
Vhttp://www.bnpparibas-ip.fr/investisseur-prive-particulier/fundsheet/produits-structures/croissance-europe-2022-classic-c-fr0013073780
p1505
sVfr0010912873
p1506
g10
sVlu0531552510
p1507
g440
sVlu0823408744
p1508
g249
s.