(dp0
Vlu1481201025
p1
Vhttp://www.bnpparibas-ip.fr/investisseur-prive-particulier/fundsheet/actions-europeennes/bnp-paribas-easy-equity-low-vol-europe-ucits-etf-c-lu1377381717
p2
sVlu0012182712
p3
Vhttp://www.bnpparibas-ip.fr/investisseur-prive-particulier/fundsheet/autres-fonds-taux-pays-developpes/parvest-bond-jpy-classic-c-lu0012182712
p4
sVfr0010714238
p5
Vhttp://www.bnpparibas-ip.fr/investisseur-prive-particulier/fundsheet/actions-internationales/topix-theam-easy-ucits-etf-eur-c-fr0010713610
p6
sVlu0325598323
p7
Vhttp://www.bnpparibas-ip.fr/investisseur-prive-particulier/fundsheet/obligations-internationales/parvest-enhanced-cash-6-months-classic-c-lu0325598166
p8
sVfr0010722272
p9
Vhttp://www.bnpparibas-ip.fr/investisseur-prive-particulier/fundsheet/actions-internationales/theam-euro-long-dividends-a-eur-c-fr0010722272
p10
sVlu0212187404
p11
Vhttp://www.bnpparibas-ip.fr/investisseur-prive-particulier/fundsheet/actions-europeennes/parvest-sustainable-equity-europe-classic-c-lu0212189012
p12
sVfr0010997825
p13
Vhttp://www.bnpparibas-ip.fr/investisseur-prive-particulier/fundsheet/diversifie-monde/fundquest-optimal-selection-classic-c-fr0010997825
p14
sVlu0172351255
p15
Vhttp://www.bnpparibas-ip.fr/investisseur-prive-particulier/fundsheet/obligations-internationales/bnp-paribas-l1-bond-euro-premium-classic-c-lu0172350877
p16
sVlu0531558558
p17
Vhttp://www.bnpparibas-ip.fr/investisseur-prive-particulier/fundsheet/obligations-internationales/bnp-paribas-l1-bond-europe-plus-classic-c-lu0010000809
p18
sVlu0823416333
p19
Vhttp://www.bnpparibas-ip.fr/investisseur-prive-particulier/fundsheet/actions-internationales/parvest-equity-world-finance-classic-c-lu0823415871
p20
sVfr0012098499
p21
Vhttp://www.bnpparibas-ip.fr/investisseur-prive-particulier/fundsheet/actions-emergentes/cardif-bnpp-ip-equity-frontier-markets-classic-c-fr0012098499
p22
sVlu0283511433
p23
Vhttp://www.bnpparibas-ip.fr/investisseur-prive-particulier/fundsheet/immobilier-europeen/parvest-real-estate-securities-europe-classic-c-lu0283511359
p24
sVfr0011362102
p25
Vhttp://www.bnpparibas-ip.fr/investisseur-prive-particulier/fundsheet/marche-monetaire-usd/bnp-paribas-deposit-usd-classic-c-fr0011362102
p26
sVlu0203243844
p27
Vhttp://www.bnpparibas-ip.fr/investisseur-prive-particulier/fundsheet/matieres-premieres/s-p-gsci-energy-metals-capped-component-35-20-theam-easy-ucits-etf-a-usd-c-lu0203243844
p28
sVfr0007016449
p29
Vhttp://www.bnpparibas-ip.fr/investisseur-prive-particulier/fundsheet/actions-internationales/cpi-performance-classique-c-fr0007016449
p30
sVlu0823443733
p31
Vhttp://www.bnpparibas-ip.fr/investisseur-prive-particulier/fundsheet/immobilier-monde/parvest-real-estate-securities-pacific-classic-c-lu0823443220
p32
sVfr0011355528
p33
Vhttp://www.bnpparibas-ip.fr/investisseur-prive-particulier/fundsheet/actions-americaines/bnp-paribas-indice-amerique-du-nord-classic-c-fr0011355528
p34
sVlu1165136174
p35
Vhttp://www.bnpparibas-ip.fr/investisseur-prive-particulier/fundsheet/actions-internationales/parvest-human-development-classic-c-lu1165136174
p36
sVlu0270761140
p37
Vhttp://www.bnpparibas-ip.fr/investisseur-prive-particulier/fundsheet/actions-europeennes/bnp-paribas-l1-equity-netherlands-classic-c-lu0043962355
p38
sVlu0194437363
p39
Vhttp://www.bnpparibas-ip.fr/investisseur-prive-particulier/fundsheet/obligations-americaines/parvest-bond-usa-high-yield-classic-c-lu0111549480
p40
sVlu0823438816
p41
Vhttp://www.bnpparibas-ip.fr/investisseur-prive-particulier/fundsheet/actions-internationales/parvest-green-tigers-classic-c-lu0823437925
p42
sVfr0007085436
p43
Vhttp://www.bnpparibas-ip.fr/investisseur-prive-particulier/fundsheet/portefeuilles-diversifies-europe/camgestion-club-patrimoine-classic-c-fr0007085436
p44
sVlu0823379382
p45
Vhttp://www.bnpparibas-ip.fr/investisseur-prive-particulier/fundsheet/produits-de-taux-emergents/parvest-bond-asia-ex-japan-classic-eur-c-lu0823378905
p46
sVlu0823410997
p47
Vhttp://www.bnpparibas-ip.fr/investisseur-prive-particulier/fundsheet/actions-americaines/parvest-equity-usa-small-cap-classic-eur-c-lu0823410724
p48
sVlu1165137578
p49
Vhttp://www.bnpparibas-ip.fr/investisseur-prive-particulier/fundsheet/actions-internationales/parvest-smart-food-classic-c-lu1165137149
p50
sVlu0086913042
p51
Vhttp://www.bnpparibas-ip.fr/investisseur-prive-particulier/fundsheet/obligations-convertibles-europeennes/parvest-convertible-bond-europe-classic-c-lu0086913042
p52
sVlu0212177199
p53
Vhttp://www.bnpparibas-ip.fr/investisseur-prive-particulier/fundsheet/obligations-europeennes/parvest-bond-euro-short-term-classic-c-lu0212175227
p54
sVlu1104108326
p55
Vhttp://www.bnpparibas-ip.fr/investisseur-prive-particulier/fundsheet/obligations-internationales/parvest-bond-world-income-classic-c-lu1104108243
p56
sVlu0283511359
p57
g24
sVlu0823381875
p58
Vhttp://www.bnpparibas-ip.fr/investisseur-prive-particulier/fundsheet/obligations-europeennes/parvest-bond-euro-long-term-classic-c-lu0823381875
p59
sVfr0010478727
p60
Vhttp://www.bnpparibas-ip.fr/investisseur-prive-particulier/fundsheet/obligations-internationales/bnp-paribas-dynamique-6-mois-classic-c-fr0007035365
p61
sVfr0012538122
p62
Vhttp://www.bnpparibas-ip.fr/investisseur-prive-particulier/fundsheet/actions-europeennes/bnp-paribas-strategie-privee-actions-europe-classic-c-fr0012538122
p63
sVlu0930019665
p64
Vhttp://www.bnpparibas-ip.fr/investisseur-prive-particulier/fundsheet/produits-structures/bnp-paribas-plan-easy-future-2026-classic-c-lu0930019582
p65
sVfr0007045919
p66
Vhttp://www.bnpparibas-ip.fr/investisseur-prive-particulier/fundsheet/diversifie-monde/gestion-moderate-classic-c-fr0007045919
p67
sVlu0111483102
p68
Vhttp://www.bnpparibas-ip.fr/investisseur-prive-particulier/fundsheet/autres-fonds-actions-pays-developpes/parvest-equity-australia-classic-eur-c-lu0251810007
p69
sVlu0823390355
p70
Vhttp://www.bnpparibas-ip.fr/investisseur-prive-particulier/fundsheet/produits-de-taux-emergents/parvest-bond-best-selection-world-emerging-classic-c-lu0823389852
p71
sVfr0010146837
p72
Vhttp://www.bnpparibas-ip.fr/investisseur-prive-particulier/fundsheet/diversifie-monde/bnp-paribas-retraite-responsable-5-p-c-fr0010146837
p73
sVlu0265293521
p74
Vhttp://www.bnpparibas-ip.fr/investisseur-prive-particulier/fundsheet/actions-emergentes/parvest-equity-turkey-classic-c-lu0265293521
p75
sVfr0007453477
p76
Vhttp://www.bnpparibas-ip.fr/investisseur-prive-particulier/fundsheet/diversifie-monde/rentabilite-mobiliere-classique-c-fr0007453477
p77
sVlu0012182126
p78
Vhttp://www.bnpparibas-ip.fr/investisseur-prive-particulier/fundsheet/obligations-americaines/parvest-bond-usd-short-duration-classic-c-lu0012182399
p79
sVfr0010948745
p80
Vhttp://www.bnpparibas-ip.fr/investisseur-prive-particulier/fundsheet/produits-structures/everglades-pea-classic-c-fr0010948745
p81
sVfr0010093872
p82
Vhttp://www.bnpparibas-ip.fr/investisseur-prive-particulier/fundsheet/obligations-europeennes/bnp-paribas-obli-revenus-classic-h-fr0010093872
p83
sVlu0925123043
p84
Vhttp://www.bnpparibas-ip.fr/investisseur-prive-particulier/fundsheet/actions-internationales/parvest-equity-world-emerging-low-volatility-classic-eur-c-lu0925123043
p85
sVlu0406802339
p86
Vhttp://www.bnpparibas-ip.fr/investisseur-prive-particulier/fundsheet/actions-internationales/parvest-climate-impact-classic-c-lu0406802339
p87
sVlu0823380125
p88
g46
sVlu1056593772
p89
Vhttp://www.bnpparibas-ip.fr/investisseur-prive-particulier/fundsheet/actions-internationales/bnp-paribas-l1-equity-world-guru-classic-eur-c-lu1056593699
p90
sVlu0325599644
p91
g8
sVfr0011653781
p92
Vhttp://www.bnpparibas-ip.fr/investisseur-prive-particulier/fundsheet/produits-structures/isis-europe-smallcap-2020-classic-c-fr0011653781
p93
sVlu0111482989
p94
g69
sVlu0251280102
p95
Vhttp://www.bnpparibas-ip.fr/investisseur-prive-particulier/fundsheet/produits-de-taux-emergents/bnp-paribas-l1-bond-world-emerging-local-classic-c-lu0907251499
p96
sVlu0823430672
p97
Vhttp://www.bnpparibas-ip.fr/investisseur-prive-particulier/fundsheet/actions-emergentes/parvest-equity-indonesia-classic-eur-c-lu0823429823
p98
sVlu1104113599
p99
Vhttp://www.bnpparibas-ip.fr/investisseur-prive-particulier/fundsheet/actions-emergentes/parvest-equity-world-emerging-small-cap-classic-c-lu1104113243
p100
sVlu1104114993
p101
Vhttp://www.bnpparibas-ip.fr/investisseur-prive-particulier/fundsheet/obligations-internationales/parvest-bond-absolute-return-v700-classic-c-lu1104114647
p102
sVlu1022403833
p103
Vhttp://www.bnpparibas-ip.fr/investisseur-prive-particulier/fundsheet/obligations-europeennes/parvest-covered-bond-euro-classic-c-lu1022403676
p104
sVfr0011585553
p105
Vhttp://www.bnpparibas-ip.fr/investisseur-prive-particulier/fundsheet/obligations-internationales/bnp-paribas-obliselect-global-high-yield-2019-classic-c-fr0011585546
p106
sVfr0012649283
p107
Vhttp://www.bnpparibas-ip.fr/investisseur-prive-particulier/fundsheet/produits-structures/athena-semi-airbag-aout-2023-classic-c-fr0012649283
p108
sVlu0823443220
p109
g32
sVfr0011011261
p110
Vhttp://www.bnpparibas-ip.fr/investisseur-prive-particulier/fundsheet/actions-europeennes/bnp-paribas-actions-pme-classic-c-fr0011693100
p111
sVlu1056593699
p112
g90
sVlu0011928255
p113
Vhttp://www.bnpparibas-ip.fr/investisseur-prive-particulier/fundsheet/obligations-internationales/bnp-paribas-l1-bond-world-plus-classic-c-lu0011928255
p114
sVfr0011046739
p115
Vhttp://www.bnpparibas-ip.fr/investisseur-prive-particulier/fundsheet/obligations-europeennes/bnp-paribas-obli-responsable-classic-c-fr0010076893
p116
sVlu0823424352
p117
Vhttp://www.bnpparibas-ip.fr/investisseur-prive-particulier/fundsheet/actions-internationales/parvest-equity-world-telecom-classic-c-lu0823422810
p118
sVlu0423950053
p119
Vhttp://www.bnpparibas-ip.fr/investisseur-prive-particulier/fundsheet/marche-monetaire-eur/bnp-paribas-insticash-money-3m-eur-classic-c-lu0423950210
p120
sVlu0956005226
p121
Vhttp://www.bnpparibas-ip.fr/investisseur-prive-particulier/fundsheet/actions-internationales/parvest-equity-best-selection-world-classic-c-lu0956005226
p122
sVlu1165136687
p123
g36
sVlu1165137222
p124
g50
sVfr0012558815
p125
Vhttp://www.bnpparibas-ip.fr/investisseur-prive-particulier/fundsheet/actions-internationales/bnp-paribas-actions-emergentes-classic-c-fr0012558815
p126
sVfr0011034586
p127
Vhttp://www.bnpparibas-ip.fr/investisseur-prive-particulier/fundsheet/produits-structures/bnp-paribas-gestion-active-classic-c-fr0011034586
p128
sVlu1049888735
p129
Vhttp://www.bnpparibas-ip.fr/investisseur-prive-particulier/fundsheet/actions-americaines/theam-quant-equity-us-guru-c-eur-c-lu1049888735
p130
sVfr0000174526
p131
Vhttp://www.bnpparibas-ip.fr/investisseur-prive-particulier/fundsheet/diversifie-monde/bnp-paribas-retraite-responsable-75-p-c-fr0010146894
p132
sVfr0011683655
p133
Vhttp://www.bnpparibas-ip.fr/investisseur-prive-particulier/fundsheet/produits-structures/bnp-paribas-thique-europe-2018-pea-classic-c-fr0011683655
p134
sVfr0010894824
p135
Vhttp://www.bnpparibas-ip.fr/investisseur-prive-particulier/fundsheet/obligations-europeennes/bnp-paribas-obli-pays-garantie-2018-classic-c-fr0010894824
p136
sVlu0111550736
p137
g40
sVfr0010670661
p138
Vhttp://www.bnpparibas-ip.fr/investisseur-prive-particulier/fundsheet/obligations-europeennes/cortal-consors-open-court-terme-classic-c-fr0010670653
p139
sVfr0010156216
p140
Vhttp://www.bnpparibas-ip.fr/investisseur-prive-particulier/fundsheet/immobilier-monde/bnp-paribas-immobilier-responsable-classic-c-fr0010156216
p141
sVlu0154361405
p142
Vhttp://www.bnpparibas-ip.fr/investisseur-prive-particulier/fundsheet/produits-structures/parvest-step-90-euro-classic-c-lu0154361405
p143
sVlu1235110779
p144
Vhttp://www.bnpparibas-ip.fr/investisseur-prive-particulier/fundsheet/actions-emergentes/theam-quant-equity-asia-guru-c-c-lu1235110779
p145
sVlu0823417901
p146
Vhttp://www.bnpparibas-ip.fr/investisseur-prive-particulier/fundsheet/actions-internationales/parvest-equity-world-low-volatility-classic-c-lu0823417810
p147
sVlu0823391676
p148
Vhttp://www.bnpparibas-ip.fr/investisseur-prive-particulier/fundsheet/obligations-internationales/parvest-bond-world-classic-c-lu0823391676
p149
sVfr0011594134
p150
Vhttp://www.bnpparibas-ip.fr/investisseur-prive-particulier/fundsheet/diversifie-monde/bnp-paribas-floreal-70-classic-c-fr0011594134
p151
sVlu0823432611
p152
Vhttp://www.bnpparibas-ip.fr/investisseur-prive-particulier/fundsheet/actions-emergentes/parvest-equity-russia-classic-c-lu0823431720
p153
sVfr0010077354
p154
Vhttp://www.bnpparibas-ip.fr/investisseur-prive-particulier/fundsheet/obligations-europeennes/bnp-paribas-obli-inflation-classic-c-fr0010077354
p155
sVfr0010112615
p156
Vhttp://www.bnpparibas-ip.fr/investisseur-prive-particulier/fundsheet/obligations-europeennes/bnp-paribas-obli-moyen-terme-classic-c-fr0010112615
p157
sVfr0011617737
p158
Vhttp://www.bnpparibas-ip.fr/investisseur-prive-particulier/fundsheet/obligations-europeennes/bnp-paribas-advanced-treasury-classic-c-fr0011617729
p159
sVlu1291107594
p160
Vhttp://www.bnpparibas-ip.fr/investisseur-prive-particulier/fundsheet/actions-europeennes/bnp-paribas-easy-msci-uk-ex-controversial-weapons-track-classic-c-lu1291107248
p161
sVlu1104113672
p162
g100
sVlu0282880003
p163
Vhttp://www.bnpparibas-ip.fr/investisseur-prive-particulier/fundsheet/actions-emergentes/parvest-equity-russia-opportunities-classic-eur-c-lu0282880003
p164
sVlu0823412266
p165
Vhttp://www.bnpparibas-ip.fr/investisseur-prive-particulier/fundsheet/actions-internationales/parvest-equity-world-consumer-durables-classic-c-lu0823411706
p166
sVlu0159092427
p167
Vhttp://www.bnpparibas-ip.fr/investisseur-prive-particulier/fundsheet/diversifie-monde/bnp-paribas-l1-diversified-world-growth-classic-c-lu0132152439
p168
sVlu0823422810
p169
g118
sVlu1104108839
p170
g56
sVfr0010146787
p171
Vhttp://www.bnpparibas-ip.fr/investisseur-prive-particulier/fundsheet/diversifie-monde/bnp-paribas-retraite-responsable-2019-2021-p-c-fr0010146787
p172
sVlu0107069717
p173
g4
sVlu0823389183
p174
Vhttp://www.bnpparibas-ip.fr/investisseur-prive-particulier/fundsheet/obligations-internationales/parvest-bond-world-high-yield-classic-c-lu0823388615
p175
sVbe0146933750
p176
Vhttp://www.bnpparibas-ip.fr/investisseur-prive-particulier/fundsheet/diversifie-monde/bnp-paribas-b-strategy-global-conservative-classic-d-be0146933750
p177
sVlu1163234195
p178
Vhttp://www.bnpparibas-ip.fr/investisseur-prive-particulier/fundsheet/actions-emergentes/bnp-paribas-flexi-i-csi-300-index-classic-eur-c-lu1163234278
p179
sVfr0011550672
p180
Vhttp://www.bnpparibas-ip.fr/investisseur-prive-particulier/fundsheet/actions-europeennes/bnp-paribas-easy-stoxx-europe-600-ucits-etf-classique-c-fr0011550193
p181
sVlu0823425839
p182
Vhttp://www.bnpparibas-ip.fr/investisseur-prive-particulier/fundsheet/actions-emergentes/parvest-equity-china-classic-eur-c-lu0823425839
p183
sVlu0111451596
p184
Vhttp://www.bnpparibas-ip.fr/investisseur-prive-particulier/fundsheet/actions-europeennes/parvest-equity-europe-mid-cap-classic-c-lu0066794719
p185
sVlu0848152095
p186
Vhttp://www.bnpparibas-ip.fr/investisseur-prive-particulier/fundsheet/diversifie-monde/bnp-paribas-quam-fund-medium-vol-classic-c-lu0236673397
p187
sVlu0159056620
p188
g18
sVlu1270632737
p189
Vhttp://www.bnpparibas-ip.fr/investisseur-prive-particulier/fundsheet/rendement-absolu/parvest-cross-asset-absolute-return-classic-c-lu1270631846
p190
sVfr0011670082
p191
Vhttp://www.bnpparibas-ip.fr/investisseur-prive-particulier/fundsheet/actions-internationales/theam-quant-equity-europe-core-a-eur-c-fr0011670082
p192
sVlu0406802685
p193
g87
sVlu1056594580
p194
Vhttp://www.bnpparibas-ip.fr/investisseur-prive-particulier/fundsheet/diversifie-monde/bnp-paribas-l1-multi-asset-income-classic-c-lu1056594234
p195
sVlu0283407293
p196
g24
sVfr0010302398
p197
Vhttp://www.bnpparibas-ip.fr/investisseur-prive-particulier/fundsheet/actions-europeennes/bnp-paribas-actions-europe-responsable-classic-c-fr0010302398
p198
sVlu0283417250
p199
Vhttp://www.bnpparibas-ip.fr/investisseur-prive-particulier/fundsheet/actions-emergentes/parvest-equity-latin-america-classic-eur-c-lu0283417250
p200
sVfr0010732701
p201
Vhttp://www.bnpparibas-ip.fr/investisseur-prive-particulier/fundsheet/portefeuilles-diversifies-europe/camgestion-europe-equilibre-classique-c-fr0010732701
p202
sVlu0823394852
p203
Vhttp://www.bnpparibas-ip.fr/investisseur-prive-particulier/fundsheet/obligations-convertibles-internationales/parvest-convertible-bond-world-classic-rh-eur-c-lu0823394852
p204
sVlu1163234278
p205
g179
sVlu0823400501
p206
Vhttp://www.bnpparibas-ip.fr/investisseur-prive-particulier/fundsheet/actions-europeennes/parvest-equity-best-selection-europe-classic-c-lu0823399810
p207
sVlu0251810007
p208
g69
sVfr0010633818
p209
Vhttp://www.bnpparibas-ip.fr/investisseur-prive-particulier/fundsheet/obligations-europeennes/camgestion-capi-oblig-classique-c-fr0010633818
p210
sVfr0010106831
p211
Vhttp://www.bnpparibas-ip.fr/investisseur-prive-particulier/fundsheet/actions-europeennes/bnp-paribas-indice-france-classic-c-fr0010106831
p212
sVfr0011296383
p213
Vhttp://www.bnpparibas-ip.fr/investisseur-prive-particulier/fundsheet/obligations-internationales/bnp-paribas-obliselect-global-high-yield-2017-classic-c-fr0011296383
p214
sVlu1049891010
p215
Vhttp://www.bnpparibas-ip.fr/investisseur-prive-particulier/fundsheet/rendement-absolu/theam-quant-equity-guru-long-short-c-c-lu1049891010
p216
sVfr0010116343
p217
Vhttp://www.bnpparibas-ip.fr/investisseur-prive-particulier/fundsheet/marche-monetaire-eur/bnp-paribas-tresorerie-classic-c-fr0010116343
p218
sVlu1254145326
p219
Vhttp://www.bnpparibas-ip.fr/investisseur-prive-particulier/fundsheet/actions-americaines/bnp-paribas-l1-equity-usa-core-classic-eur-c-lu0531774767
p220
sVlu0930018931
p221
Vhttp://www.bnpparibas-ip.fr/investisseur-prive-particulier/fundsheet/produits-structures/bnp-paribas-plan-easy-future-2021-classic-c-lu0930018931
p222
sVlu0111491626
p223
Vhttp://www.bnpparibas-ip.fr/investisseur-prive-particulier/fundsheet/actions-europeennes/parvest-sustainable-equity-high-dividend-europe-classic-c-lu0111491469
p224
sVlu1377382012
p225
Vhttp://www.bnpparibas-ip.fr/investisseur-prive-particulier/fundsheet/actions-europeennes/bnp-paribas-easy-equity-momentum-europe-ucits-etf-c-lu1377382012
p226
sVlu1291092119
p227
Vhttp://www.bnpparibas-ip.fr/investisseur-prive-particulier/fundsheet/obligations-internationales/bnp-paribas-easy-jpm-embi-global-diversified-composite-track-privilege-h-eur-c-lu1291092119
p228
sVfr0007006929
p229
Vhttp://www.bnpparibas-ip.fr/investisseur-prive-particulier/fundsheet/actions-europeennes/camgestion-active-100-classique-c-fr0007006929
p230
sVfr0011088475
p231
Vhttp://www.bnpparibas-ip.fr/investisseur-prive-particulier/fundsheet/obligations-internationales/bnp-paribas-double-garantie-decembre-2018-classic-c-fr0011088475
p232
sVlu0823415012
p233
Vhttp://www.bnpparibas-ip.fr/investisseur-prive-particulier/fundsheet/actions-internationales/parvest-equity-world-energy-classic-c-lu0823414635
p234
sVlu0225846186
p235
Vhttp://www.bnpparibas-ip.fr/investisseur-prive-particulier/fundsheet/actions-emergentes/parvest-equity-south-korea-classic-eur-c-lu0282880698
p236
sVfr0012538098
p237
Vhttp://www.bnpparibas-ip.fr/investisseur-prive-particulier/fundsheet/actions-europeennes/bnp-paribas-strategie-privee-isr-actions-europe-classic-c-fr0012538098
p238
sVfr0012716710
p239
Vhttp://www.bnpparibas-ip.fr/investisseur-prive-particulier/fundsheet/produits-structures/eco-developpement-protege-90-classic-c-fr0012716710
p240
sVlu1104106973
p241
Vhttp://www.bnpparibas-ip.fr/investisseur-prive-particulier/fundsheet/produits-de-taux-emergents/parvest-bond-rmb-classic-c-lu1104106973
p242
sVlu0823386320
p243
Vhttp://www.bnpparibas-ip.fr/investisseur-prive-particulier/fundsheet/produits-de-taux-emergents/parvest-bond-world-emerging-local-classic-eur-c-lu0823385272
p244
sVlu0925122821
p245
g85
sVfr0007068085
p246
Vhttp://www.bnpparibas-ip.fr/investisseur-prive-particulier/fundsheet/actions-europeennes/bnp-paribas-easy-stoxx-europe-600-oil-gas-ucits-etf-classique-c-fr0007068085
p247
sVlu0662594398
p248
Vhttp://www.bnpparibas-ip.fr/investisseur-prive-particulier/fundsheet/produits-de-taux-emergents/parvest-bond-world-emerging-classic-eur-c-lu0282274348
p249
sVlu0823407779
p250
Vhttp://www.bnpparibas-ip.fr/investisseur-prive-particulier/fundsheet/actions-americaines/parvest-equity-high-dividend-usa-classic-eur-c-lu0823407779
p251
sVlu0265267954
p252
Vhttp://www.bnpparibas-ip.fr/investisseur-prive-particulier/fundsheet/actions-emergentes/parvest-equity-brazil-classic-eur-c-lu0281906387
p253
sVlu0347712191
p254
Vhttp://www.bnpparibas-ip.fr/investisseur-prive-particulier/fundsheet/actions-internationales/parvest-global-environment-classic-c-lu0347711466
p255
sVlu0249333690
p256
Vhttp://www.bnpparibas-ip.fr/investisseur-prive-particulier/fundsheet/obligations-internationales/parvest-bond-world-inflation-linked-classic-c-lu0249332619
p257
sVlu0325598166
p258
g8
sVlu0823385603
p259
g244
sVlu0823450787
p260
Vhttp://www.bnpparibas-ip.fr/investisseur-prive-particulier/fundsheet/matieres-premieres/parvest-commodities-classic-eur-c-lu0823449185
p261
sVfr0012443158
p262
Vhttp://www.bnpparibas-ip.fr/investisseur-prive-particulier/fundsheet/diversifie-monde/bnp-paribas-linus-flexi-world-a-c-fr0012443158
p263
sVlu0249332619
p264
g257
sVlu0925122235
p265
Vhttp://www.bnpparibas-ip.fr/investisseur-prive-particulier/fundsheet/autres-fonds-actions-pays-developpes/parvest-equity-japan-small-cap-classic-eur-c-lu0251807987
p266
sVlu1270632067
p267
g190
sVfr0013127149
p268
Vhttp://www.bnpparibas-ip.fr/investisseur-prive-particulier/fundsheet/portefeuilles-diversifies-europe/bnpp-european-multi-asset-moderate-a-c-fr0013127149
p269
sVlu1022398496
p270
Vhttp://www.bnpparibas-ip.fr/investisseur-prive-particulier/fundsheet/actions-internationales/parvest-equity-high-dividend-world-classic-c-lu1022398496
p271
sVlu1022405028
p272
Vhttp://www.bnpparibas-ip.fr/investisseur-prive-particulier/fundsheet/obligations-internationales/parvest-flexible-bond-euro-classic-c-lu1022404724
p273
sVlu0823423388
p274
g118
sVfr0010076893
p275
g116
sVfr0013057130
p276
Vhttp://www.bnpparibas-ip.fr/investisseur-prive-particulier/fundsheet/diversifie-monde/camgestion-g-n-ration-2031-35-classic-c-fr0013057130
p277
sVlu0925123803
p278
g102
sVlu0823409635
p279
Vhttp://www.bnpparibas-ip.fr/investisseur-prive-particulier/fundsheet/actions-emergentes/parvest-equity-asia-pacific-ex-japan-classic-eur-c-lu0823409718
p280
sVlu1022404138
p281
g104
sVfr0011314293
p282
Vhttp://www.bnpparibas-ip.fr/investisseur-prive-particulier/fundsheet/obligations-europeennes/bnp-paribas-obliselect-nordic-hy-2019-hedged-classic-c-fr0011314335
p283
sVlu0823433858
p284
g75
sVlu0823399067
p285
Vhttp://www.bnpparibas-ip.fr/investisseur-prive-particulier/fundsheet/actions-europeennes/parvest-equity-best-selection-europe-ex-uk-classic-c-lu0823398416
p286
sVfr0007471198
p287
Vhttp://www.bnpparibas-ip.fr/investisseur-prive-particulier/fundsheet/diversifie-monde/actions-monde-bnpp-ip-classique-h-fr0007471198
p288
sVlu0823421689
p289
Vhttp://www.bnpparibas-ip.fr/investisseur-prive-particulier/fundsheet/actions-internationales/parvest-equity-world-technology-classic-c-lu0823421689
p290
sVlu0083137926
p291
Vhttp://www.bnpparibas-ip.fr/investisseur-prive-particulier/fundsheet/marche-monetaire-eur/parvest-money-market-euro-classic-c-lu0083138064
p292
sVlu0823404081
p293
Vhttp://www.bnpparibas-ip.fr/investisseur-prive-particulier/fundsheet/actions-emergentes/parvest-equity-europe-emerging-classic-c-lu0823403356
p294
sVlu1104425308
p295
Vhttp://www.bnpparibas-ip.fr/investisseur-prive-particulier/fundsheet/actions-europeennes/parvest-equity-europe-growth-classic-c-lu0823404248
p296
sVfr0010217588
p297
Vhttp://www.bnpparibas-ip.fr/investisseur-prive-particulier/fundsheet/actions-europeennes/bnp-paribas-actions-entrepreneurs-classic-c-fr0010217588
p298
sVlu1120433575
p299
Vhttp://www.bnpparibas-ip.fr/investisseur-prive-particulier/fundsheet/actions-internationales/theam-quant-equity-us-covered-c-eur-c-lu1120433732
p300
sVlu0347711466
p301
g255
sVlu0111466271
p302
Vhttp://www.bnpparibas-ip.fr/investisseur-prive-particulier/fundsheet/obligations-convertibles-emergentes/parvest-convertible-bond-asia-classic-eur-c-lu0281885953
p303
sVfr0010409946
p304
Vhttp://www.bnpparibas-ip.fr/investisseur-prive-particulier/fundsheet/obligations-europeennes/fundquest-bond-opportunities-classic-c-fr0010409946
p305
sVlu0930019236
p306
Vhttp://www.bnpparibas-ip.fr/investisseur-prive-particulier/fundsheet/produits-structures/bnp-paribas-plan-easy-future-2023-classic-c-lu0930019236
p307
sVfr0010294959
p308
Vhttp://www.bnpparibas-ip.fr/investisseur-prive-particulier/fundsheet/autres-marches-monetaires/bnp-paribas-structure-court-terme-classic-c-fr0010609099
p309
sVlu0823414718
p310
g234
sVfr0011318039
p311
Vhttp://www.bnpparibas-ip.fr/investisseur-prive-particulier/fundsheet/obligations-europeennes/bnp-paribas-obliselect-nordic-hy-2019-classic-c-fr0011318039
p312
sVlu1270631846
p313
g190
sVlu0930019582
p314
g65
sVlu0823387054
p315
g244
sVlu0030437460
p316
g114
sVlu0107061904
p317
g200
sVlu0823449425
p318
g261
sVfr0011681956
p319
Vhttp://www.bnpparibas-ip.fr/investisseur-prive-particulier/fundsheet/produits-structures/bnp-paribas-eco-developpement-2021-classic-c-fr0011681956
p320
sVfr0013176369
p321
Vhttp://www.bnpparibas-ip.fr/investisseur-prive-particulier/fundsheet/obligations-europeennes/bnp-paribas-sustainable-bond-euro-short-term-classic-c-fr0013176336
p322
sVfr0011249390
p323
Vhttp://www.bnpparibas-ip.fr/investisseur-prive-particulier/fundsheet/produits-structures/bnp-paribas-gestion-active-octobre-2018-classic-c-fr0011249390
p324
sVlu0783285330
p325
Vhttp://www.bnpparibas-ip.fr/investisseur-prive-particulier/fundsheet/marche-monetaire-usd/bnp-paribas-insticash-usd-classic-c-lu0167238863
p326
sVlu0823449268
p327
g261
sVfr0000285629
p328
Vhttp://www.bnpparibas-ip.fr/investisseur-prive-particulier/fundsheet/obligations-convertibles-europeennes/camgestion-convertibles-europe-classic-h-fr0000285629
p329
sVfr0011908102
p330
Vhttp://www.bnpparibas-ip.fr/investisseur-prive-particulier/fundsheet/obligations-europeennes/bnp-paribas-euro-flexi-bond-income-a-h-fr0011908078
p331
sVlu1481201702
p332
Vhttp://www.bnpparibas-ip.fr/investisseur-prive-particulier/fundsheet/actions-europeennes/bnp-paribas-easy-equity-value-europe-ucits-etf-c-lu1377382285
p333
sVlu0957145369
p334
g120
sVlu0531975158
p335
g16
sVlu0012181235
p336
Vhttp://www.bnpparibas-ip.fr/investisseur-prive-particulier/fundsheet/actions-americaines/parvest-equity-usa-classic-eur-c-lu0251804968
p337
sVlu0823401574
p338
Vhttp://www.bnpparibas-ip.fr/investisseur-prive-particulier/fundsheet/actions-europeennes/parvest-equity-best-selection-euro-classic-c-lu0823401574
p339
sVlu1056593426
p340
g90
sVfr0010670653
p341
g139
sVlu1245560070
p342
Vhttp://www.bnpparibas-ip.fr/investisseur-prive-particulier/fundsheet/actions-emergentes/theam-quant-equity-emerging-guru-c-eur-c-lu1120436321
p343
sVlu0823389423
p344
g71
sVfr0012739431
p345
Vhttp://www.bnpparibas-ip.fr/investisseur-prive-particulier/fundsheet/actions-europeennes/bnp-paribas-easy-euro-stoxx-50-ucits-etf-eur-c-c-fr0012739431
p346
sVlu0111445861
p347
Vhttp://www.bnpparibas-ip.fr/investisseur-prive-particulier/fundsheet/autres-fonds-actions-pays-developpes/parvest-equity-japan-classic-eur-c-lu0251809090
p348
sVlu1291107248
p349
g161
sVlu1291098314
p350
Vhttp://www.bnpparibas-ip.fr/investisseur-prive-particulier/fundsheet/actions-emergentes/bnp-paribas-easy-msci-emerging-markets-sri-ucits-etf-c-lu1291098314
p351
sVfr0010609099
p352
g309
sVlu0177332573
p353
Vhttp://www.bnpparibas-ip.fr/investisseur-prive-particulier/fundsheet/actions-europeennes/parvest-equity-europe-value-classic-c-lu0177332227
p354
sVlu0167236909
p355
Vhttp://www.bnpparibas-ip.fr/investisseur-prive-particulier/fundsheet/marche-monetaire-gbp/bnp-paribas-insticash-gbp-classic-c-lu0167236651
p356
sVlu0086914446
p357
Vhttp://www.bnpparibas-ip.fr/investisseur-prive-particulier/fundsheet/obligations-europeennes/parvest-bond-euro-medium-term-classic-c-lu0086914362
p358
sVlu0950372911
p359
Vhttp://www.bnpparibas-ip.fr/investisseur-prive-particulier/fundsheet/actions-europeennes/parvest-equity-nordic-small-cap-classic-c-lu0950372838
p360
sVlu0245286777
p361
Vhttp://www.bnpparibas-ip.fr/investisseur-prive-particulier/fundsheet/actions-internationales/bnp-paribas-islamic-fund-equity-optimiser-classic-c-lu0245286777
p362
sVfr0011176841
p363
Vhttp://www.bnpparibas-ip.fr/investisseur-prive-particulier/fundsheet/autres-marches-monetaires/bnp-paribas-court-terme-assurance-classic-c-fr0011176841
p364
sVlu0828230770
p365
Vhttp://www.bnpparibas-ip.fr/investisseur-prive-particulier/fundsheet/obligations-europeennes/parvest-sustainable-bond-euro-classic-c-lu0828230697
p366
sVlu1291092978
p367
Vhttp://www.bnpparibas-ip.fr/investisseur-prive-particulier/fundsheet/obligations-internationales/bnp-paribas-easy-jpm-gbi-emu-track-privilege-c-lu1291092978
p368
sVfr0012553659
p369
Vhttp://www.bnpparibas-ip.fr/investisseur-prive-particulier/fundsheet/obligations-europeennes/camgestion-obliflexible-classic-h-fr0012553659
p370
sVlu1325793427
p371
Vhttp://www.bnpparibas-ip.fr/investisseur-prive-particulier/fundsheet/actions-internationales/parworld-equity-world-defi-classic-c-lu1325792700
p372
sVlu0823380398
p373
g46
sVfr0010115014
p374
g157
sVlu1291098827
p375
Vhttp://www.bnpparibas-ip.fr/investisseur-prive-particulier/fundsheet/actions-europeennes/bnp-paribas-easy-msci-emu-ex-controversial-weapons-track-privilege-c-lu1291098660
p376
sVfr0012686020
p377
Vhttp://www.bnpparibas-ip.fr/investisseur-prive-particulier/fundsheet/actions-internationales/fundquest-ethisworld-b-h-fr0012686046
p378
sVlu1022398652
p379
g271
sVlu0158838473
p380
Vhttp://www.bnpparibas-ip.fr/investisseur-prive-particulier/fundsheet/actions-europeennes/bnp-paribas-l1-equity-europe-classic-c-lu0010012721
p381
sVfr0007494166
p382
Vhttp://www.bnpparibas-ip.fr/investisseur-prive-particulier/fundsheet/obligations-europeennes/camgestion-oblicycle-inflation-classic-c-fr0007494166
p383
sVlu0111466198
p384
g52
sVfr0010712729
p385
Vhttp://www.bnpparibas-ip.fr/investisseur-prive-particulier/fundsheet/obligations-europeennes/camgestion-euroblig-classic-c-fr0010712729
p386
sVfr0010576777
p387
Vhttp://www.bnpparibas-ip.fr/investisseur-prive-particulier/fundsheet/marche-monetaire-eur/bami-tresorerie-classic-c-fr0010576777
p388
sVlu0907251499
p389
g96
sVlu0194438338
p390
g348
sVlu0010000809
p391
g18
sVlu0823426480
p392
g183
sVfr0010636456
p393
Vhttp://www.bnpparibas-ip.fr/investisseur-prive-particulier/fundsheet/rendement-absolu/bnp-paribas-multistrategies-actif-classique-c-fr0010636456
p394
sVfr0010716217
p395
Vhttp://www.bnpparibas-ip.fr/investisseur-prive-particulier/fundsheet/diversifie-monde/camgestion-g-n-ration-2021-25-classic-c-fr0010716217
p396
sVlu0823432454
p397
g153
sVlu1022403676
p398
g104
sVfr0007044706
p399
Vhttp://www.bnpparibas-ip.fr/investisseur-prive-particulier/fundsheet/actions-europeennes/cnp-assur-smid-cap-europe-classique-h-fr0007044706
p400
sVlu1481200217
p401
Vhttp://www.bnpparibas-ip.fr/investisseur-prive-particulier/fundsheet/obligations-internationales/bnp-paribas-easy-barclays-euro-government-inflation-linked-all-maturities-track-privilege-c-lu1291090766
p402
sVlu0190304740
p403
Vhttp://www.bnpparibas-ip.fr/investisseur-prive-particulier/fundsheet/obligations-europeennes/parvest-bond-euro-inflation-linked-classic-c-lu0190304583
p404
sVfr0007068051
p405
Vhttp://www.bnpparibas-ip.fr/investisseur-prive-particulier/fundsheet/actions-europeennes/bnp-paribas-easy-stoxx-europe-600-media-ucits-etf-classique-c-fr0007068051
p406
sVfr0000299620
p407
Vhttp://www.bnpparibas-ip.fr/investisseur-prive-particulier/fundsheet/marche-monetaire-eur/bnp-paribas-mone-etat-classic-c-fr0011279827
p408
sVlu0982365545
p409
Vhttp://www.bnpparibas-ip.fr/investisseur-prive-particulier/fundsheet/actions-europeennes/bnp-paribas-l1-equity-europe-low-volatility-classic-c-lu0982365545
p410
sVlu1150255971
p411
Vhttp://www.bnpparibas-ip.fr/investisseur-prive-particulier/fundsheet/obligations-internationales/bnp-paribas-islamic-fund-hilal-income-classic-c-lu1150255971
p412
sVfr0010146522
p413
Vhttp://www.bnpparibas-ip.fr/investisseur-prive-particulier/fundsheet/diversifie-monde/bnp-paribas-retraite-responsable-horizon-i-100-c-fr0010146522
p414
sVlu0823416762
p415
Vhttp://www.bnpparibas-ip.fr/investisseur-prive-particulier/fundsheet/actions-internationales/parvest-equity-world-health-care-classic-c-lu0823416762
p416
sVfr0010714279
p417
g6
sVlu0107086729
p418
g249
sVfr0011033950
p419
Vhttp://www.bnpparibas-ip.fr/investisseur-prive-particulier/fundsheet/obligations-internationales/bnp-paribas-double-garantie-juillet-2017-classic-c-fr0011033950
p420
sVlu0111550652
p421
g40
sVlu1049887414
p422
Vhttp://www.bnpparibas-ip.fr/investisseur-prive-particulier/fundsheet/actions-europeennes/theam-quant-equity-europe-income-defensive-c-c-lu1049885806
p423
sVlu0823431720
p424
g153
sVfr0011036110
p425
Vhttp://www.bnpparibas-ip.fr/investisseur-prive-particulier/fundsheet/actions-europeennes/camgestion-actions-euro-classic-c-fr0011036110
p426
sVlu0225845295
p427
g236
sVfr0010941617
p428
Vhttp://www.bnpparibas-ip.fr/investisseur-prive-particulier/fundsheet/produits-structures/yosemite-classic-c-fr0010941617
p429
sVlu0823425169
p430
Vhttp://www.bnpparibas-ip.fr/investisseur-prive-particulier/fundsheet/actions-internationales/parvest-equity-world-utilities-classic-c-lu0823424782
p431
sVlu0823392211
p432
g149
sVfr0010076638
p433
Vhttp://www.bnpparibas-ip.fr/investisseur-prive-particulier/fundsheet/diversifie-monde/bnp-paribas-floreal-30-classic-d-fr0010076638
p434
sVlu0212189012
p435
g12
sVfr0010376848
p436
Vhttp://www.bnpparibas-ip.fr/investisseur-prive-particulier/fundsheet/actions-europeennes/fundquest-europe-opportunities-classic-c-fr0010376848
p437
sVlu0823411458
p438
g48
sVlu0774754948
p439
Vhttp://www.bnpparibas-ip.fr/investisseur-prive-particulier/fundsheet/actions-internationales/parworld-quant-equity-world-guru-classic-c-lu0774754948
p440
sVlu0377066633
p441
Vhttp://www.bnpparibas-ip.fr/investisseur-prive-particulier/fundsheet/obligations-convertibles-europeennes/bnp-paribas-l1-convertible-bond-best-selection-europe-classic-c-lu0377063960
p442
sVlu0823449698
p443
g261
sVlu1291102108
p444
Vhttp://www.bnpparibas-ip.fr/investisseur-prive-particulier/fundsheet/actions-internationales/bnp-paribas-easy-msci-japan-ex-controversial-weapons-track-classic-capitalisationlu1291101985
p445
sVlu0930020911
p446
Vhttp://www.bnpparibas-ip.fr/investisseur-prive-particulier/fundsheet/produits-structures/bnp-paribas-plan-easy-future-2043-classic-c-lu0930020838
p447
sVlu0823401731
p448
g339
sVlu1022808221
p449
Vhttp://www.bnpparibas-ip.fr/investisseur-prive-particulier/fundsheet/autres-fonds-actions-pays-developpes/parvest-equity-usa-value-classic-eur-c-lu1022808148
p450
sVlu0823422497
p451
g290
sVlu1022399973
p452
g450
sVfr0010113639
p453
Vhttp://www.bnpparibas-ip.fr/investisseur-prive-particulier/fundsheet/obligations-europeennes/bnp-paribas-obli-ct-classic-c-fr0010112094
p454
sVlu0111463419
p455
g102
sVlu1484486805
p456
Vhttp://www.bnpparibas-ip.fr/investisseur-prive-particulier/fundsheet/rendement-absolu/parworld-lyra-classic-c-lu1484486714
p457
sVlu1022392531
p458
Vhttp://www.bnpparibas-ip.fr/investisseur-prive-particulier/fundsheet/obligations-europeennes/parvest-bond-euro-short-term-corporate-classic-c-lu1022392028
p459
sVlu0823398259
p460
Vhttp://www.bnpparibas-ip.fr/investisseur-prive-particulier/fundsheet/actions-emergentes/parvest-equity-best-selection-asia-ex-japan-classic-eur-c-lu0823397368
p461
sVlu1022394156
p462
Vhttp://www.bnpparibas-ip.fr/investisseur-prive-particulier/fundsheet/obligations-internationales/parvest-bond-world-high-yield-short-duration-classic-c-lu1022394156
p463
sVfr0010077362
p464
Vhttp://www.bnpparibas-ip.fr/investisseur-prive-particulier/fundsheet/actions-europeennes/bnp-paribas-europe-dividende-responsable-classic-c-fr0010077362
p465
sVlu0823381289
p466
Vhttp://www.bnpparibas-ip.fr/investisseur-prive-particulier/fundsheet/obligations-europeennes/parvest-bond-euro-high-yield-classic-c-lu0823380802
p467
sVfr0011236652
p468
Vhttp://www.bnpparibas-ip.fr/investisseur-prive-particulier/fundsheet/matieres-premieres/alpha-commodity-fund-a-usd-c-fr0011236652
p469
sVlu0823397954
p470
g461
sVfr0010772020
p471
Vhttp://www.bnpparibas-ip.fr/investisseur-prive-particulier/fundsheet/actions-europeennes/camgestion-deep-value-classic-c-fr0010772020
p472
sVlu0823433932
p473
g75
sVlu0823402036
p474
g339
sVfr0010230516
p475
Vhttp://www.bnpparibas-ip.fr/investisseur-prive-particulier/fundsheet/actions-europeennes/euro-stoxx-theam-easy-ucits-etf-classique-h-fr0010230516
p476
sVlu0281885953
p477
g303
sVlu0823406961
p478
Vhttp://www.bnpparibas-ip.fr/investisseur-prive-particulier/fundsheet/actions-emergentes/parvest-equity-high-dividend-pacific-classic-eur-c-lu0823406961
p479
sVlu1078737910
p480
Vhttp://www.bnpparibas-ip.fr/investisseur-prive-particulier/fundsheet/diversifie-monde/bnp-paribas-a-fund-european-multi-asset-income-classic-c-lu1078737910
p481
sVlu0095613583
p482
g303
sVfr0011550680
p483
Vhttp://www.bnpparibas-ip.fr/investisseur-prive-particulier/fundsheet/actions-americaines/bnp-paribas-easy-s-p-500-ucits-etf-c-eur-c-fr0011550185
p484
sVlu1049891101
p485
g216
sVlu0218129350
p486
Vhttp://www.bnpparibas-ip.fr/investisseur-prive-particulier/fundsheet/rendement-absolu/parworld-tracker-macro-opportunities-classic-c-lu0218129350
p487
sVfr0007006911
p488
Vhttp://www.bnpparibas-ip.fr/investisseur-prive-particulier/fundsheet/portefeuilles-diversifies-europe/camgestion-active-convictions-classic-c-fr0007006911
p489
sVlu0194436803
p490
g79
sVlu0823403943
p491
g294
sVfr0011182773
p492
Vhttp://www.bnpparibas-ip.fr/investisseur-prive-particulier/fundsheet/obligations-internationales/bnp-paribas-double-garantie-juillet-2020-classic-c-fr0011182773
p493
sVlu1056593343
p494
g90
sVlu1080341578
p495
Vhttp://www.bnpparibas-ip.fr/investisseur-prive-particulier/fundsheet/obligations-americaines/bnp-paribas-flexi-i-us-mortgage-classic-c-lu1080341065
p496
sVlu1235113286
p497
Vhttp://www.bnpparibas-ip.fr/investisseur-prive-particulier/fundsheet/actions-europeennes/theam-quant-equity-europe-income-protected-protected-i-c-lu1235113286
p498
sVfr0010028910
p499
Vhttp://www.bnpparibas-ip.fr/investisseur-prive-particulier/fundsheet/actions-europeennes/bnp-paribas-actions-europe-classic-c-fr0010028910
p500
sVfr0013157146
p501
Vhttp://www.bnpparibas-ip.fr/investisseur-prive-particulier/fundsheet/actions-europeennes/bnp-paribas-smallcap-euroland-classic-c-fr0010128587
p502
sVlu0132151464
p503
Vhttp://www.bnpparibas-ip.fr/investisseur-prive-particulier/fundsheet/diversifie-monde/bnp-paribas-l1-diversified-world-balanced-classic-c-lu0132151118
p504
sVfr0010077453
p505
Vhttp://www.bnpparibas-ip.fr/investisseur-prive-particulier/fundsheet/actions-europeennes/bnp-paribas-technologies-europe-classic-c-fr0010077453
p506
sVfr0013153236
p507
Vhttp://www.bnpparibas-ip.fr/investisseur-prive-particulier/fundsheet/obligations-europeennes/bnp-paribas-european-hy-2022-classic-capitalisationfr0013153228
p508
sVfr0010714246
p509
g6
sVlu0823413157
p510
Vhttp://www.bnpparibas-ip.fr/investisseur-prive-particulier/fundsheet/actions-emergentes/parvest-equity-world-emerging-classic-eur-c-lu0823413074
p511
sVfr0010077461
p512
Vhttp://www.bnpparibas-ip.fr/investisseur-prive-particulier/fundsheet/actions-europeennes/bnp-paribas-energie-europe-classic-c-fr0010077461
p513
sVlu0823424865
p514
g431
sVlu1120431280
p515
Vhttp://www.bnpparibas-ip.fr/investisseur-prive-particulier/fundsheet/actions-internationales/theam-quant-equity-euro-covered-c-c-lu1120431280
p516
sVlu1484486714
p517
g457
sVlu0823428189
p518
Vhttp://www.bnpparibas-ip.fr/investisseur-prive-particulier/fundsheet/actions-europeennes/parvest-equity-germany-classic-c-lu0823427611
p519
sVfr0010076547
p520
Vhttp://www.bnpparibas-ip.fr/investisseur-prive-particulier/fundsheet/diversifie-monde/bnp-paribas-selection-dynamique-monde-classic-c-fr0010076547
p521
sVlu0111548326
p522
Vhttp://www.bnpparibas-ip.fr/investisseur-prive-particulier/fundsheet/obligations-europeennes/parvest-bond-euro-government-classic-c-lu0111548326
p523
sVfr0007031877
p524
Vhttp://www.bnpparibas-ip.fr/investisseur-prive-particulier/fundsheet/marche-monetaire-eur/bnp-paribas-monetaire-assurance-classic-c-fr0007031877
p525
sVlu0823390868
p526
Vhttp://www.bnpparibas-ip.fr/investisseur-prive-particulier/fundsheet/obligations-europeennes/parvest-bond-euro-classic-c-lu0075938133
p527
sVlu1151728836
p528
Vhttp://www.bnpparibas-ip.fr/investisseur-prive-particulier/fundsheet/diversifie-monde/bnp-paribas-l1-patrimoine-classic-c-lu1151728596
p529
sVlu0823385512
p530
g244
sVlu0212189368
p531
g12
sVlu0823417497
p532
g416
sVfr0013063989
p533
Vhttp://www.bnpparibas-ip.fr/investisseur-prive-particulier/fundsheet/actions-europeennes/ds-patrimoine-e-c-fr0013063989
p534
sVfr0010104901
p535
Vhttp://www.bnpparibas-ip.fr/investisseur-prive-particulier/fundsheet/obligations-europeennes/bnp-paribas-obli-long-terme-classic-c-fr0010098210
p536
sVlu0823408074
p537
g251
sVfr0007018775
p538
Vhttp://www.bnpparibas-ip.fr/investisseur-prive-particulier/fundsheet/portefeuilles-diversifies-europe/objectif-actions-classique-d-fr0007018775
p539
sVlu0823403786
p540
g294
sVlu1049895607
p541
Vhttp://www.bnpparibas-ip.fr/investisseur-prive-particulier/fundsheet/matieres-premieres/theam-quant-raw-materials-enhanced-j-eur-h-c-lu1049895193
p542
sVlu1325792700
p543
g372
sVlu1049884155
p544
Vhttp://www.bnpparibas-ip.fr/investisseur-prive-particulier/fundsheet/actions-americaines/theam-quant-equity-us-income-defensive-c-eur-c-lu1049884312
p545
sVfr0010144550
p546
g141
sVfr0013127172
p547
g269
sVlu0265291152
p548
Vhttp://www.bnpparibas-ip.fr/investisseur-prive-particulier/fundsheet/obligations-internationales/parvest-sustainable-bond-world-corporate-classic-c-lu0282388437
p549
sVlu1291103171
p550
Vhttp://www.bnpparibas-ip.fr/investisseur-prive-particulier/fundsheet/actions-americaines/bnp-paribas-easy-msci-kld-400-social-track-privilege-c-lu1291103171
p551
sVlu0950373133
p552
g360
sVlu0102019857
p553
g102
sVlu1056591560
p554
Vhttp://www.bnpparibas-ip.fr/investisseur-prive-particulier/fundsheet/actions-internationales/bnp-paribas-l1-equity-world-quality-focus-classic-c-lu1056591487
p555
sVfr0011333780
p556
Vhttp://www.bnpparibas-ip.fr/investisseur-prive-particulier/fundsheet/actions-europeennes/bnp-paribas-best-selection-euro-classic-h-fr0011333780
p557
sVlu0823427884
p558
g519
sVlu0154246218
p559
Vhttp://www.bnpparibas-ip.fr/investisseur-prive-particulier/fundsheet/actions-americaines/parvest-equity-usa-mid-cap-classic-eur-c-lu0251807045
p560
sVfr0011870997
p561
Vhttp://www.bnpparibas-ip.fr/investisseur-prive-particulier/fundsheet/diversifie-monde/bnp-paribas-social-business-france-classic-c-fr0011870997
p562
sVlu0823398507
p563
g286
sVlu1291090766
p564
g402
sVlu1291109616
p565
Vhttp://www.bnpparibas-ip.fr/investisseur-prive-particulier/fundsheet/matieres-premieres/bnp-paribas-easy-s-p-gsci-energy-metals-capped-component-35-20-ucits-etf-eur-c-lu1291109616
p566
sVlu0167236651
p567
g356
sVfr0010261842
p568
Vhttp://www.bnpparibas-ip.fr/investisseur-prive-particulier/fundsheet/actions-internationales/bnp-paribas-utilities-classic-c-fr0010261842
p569
sVlu0907251655
p570
Vhttp://www.bnpparibas-ip.fr/investisseur-prive-particulier/fundsheet/actions-emergentes/bnp-paribas-l1-equity-world-emerging-classic-c-lu0907251655
p571
sVlu0823417141
p572
g416
sVlu0925120700
p573
g40
sVlu0172351099
p574
g16
sVlu1291093604
p575
Vhttp://www.bnpparibas-ip.fr/investisseur-prive-particulier/fundsheet/obligations-internationales/bnp-paribas-easy-jpm-gbi-global-ex-emu-hedged-eur-track-privilege-c-lu1291093604
p576
sVfr0010682690
p577
Vhttp://www.bnpparibas-ip.fr/investisseur-prive-particulier/fundsheet/obligations-europeennes/cortal-consors-open-rendement-classic-c-fr0010682690
p578
sVlu0930020598
p579
Vhttp://www.bnpparibas-ip.fr/investisseur-prive-particulier/fundsheet/produits-structures/bnp-paribas-plan-easy-future-2038-classic-c-lu0930020598
p580
sVlu1165136257
p581
g36
sVlu0823418388
p582
g147
sVlu0823417224
p583
g416
sVfr0012538130
p584
Vhttp://www.bnpparibas-ip.fr/investisseur-prive-particulier/fundsheet/actions-internationales/bnp-paribas-strategie-privee-isr-actions-internationales-classic-c-fr0012538130
p585
sVfr0010668145
p586
Vhttp://www.bnpparibas-ip.fr/investisseur-prive-particulier/fundsheet/actions-internationales/bnp-paribas-aqua-classic-c-fr0010668145
p587
sVlu0111549217
p588
g523
sVlu1104115453
p589
Vhttp://www.bnpparibas-ip.fr/investisseur-prive-particulier/fundsheet/diversifie-monde/parvest-flexible-multi-asset-classic-c-lu1104115453
p590
sVfr0013176351
p591
g322
sVlu0066794719
p592
g185
sVfr0010417857
p593
Vhttp://www.bnpparibas-ip.fr/investisseur-prive-particulier/fundsheet/hedge-fund/bnp-paribas-alternatif-p-c-fr0010417857
p594
sVlu0161743942
p595
Vhttp://www.bnpparibas-ip.fr/investisseur-prive-particulier/fundsheet/obligations-europeennes/bnp-paribas-l1-bond-euro-high-yield-classic-c-lu0907251226
p596
sVfr0010146803
p597
Vhttp://www.bnpparibas-ip.fr/investisseur-prive-particulier/fundsheet/diversifie-monde/bnp-paribas-retraite-responsable-2022-2024-p-c-fr0010146803
p598
sVfr0010693168
p599
Vhttp://www.bnpparibas-ip.fr/investisseur-prive-particulier/fundsheet/obligations-europeennes/camgestion-oblicycle-credit-classic-c-fr0010693168
p600
sVlu1049884668
p601
g545
sVlu1022404724
p602
g273
sVlu0823412423
p603
g166
sVlu0823398929
p604
g286
sVfr0011882331
p605
Vhttp://www.bnpparibas-ip.fr/investisseur-prive-particulier/fundsheet/produits-structures/isis-europe-value-2020-classic-c-fr0011882331
p606
sVlu1022405374
p607
g273
sVfr0010028761
p608
Vhttp://www.bnpparibas-ip.fr/investisseur-prive-particulier/fundsheet/obligations-convertibles-europeennes/bnp-paribas-convertibles-europe-classic-c-fr0010028761
p609
sVlu0212175227
p610
g54
sVlu0107088931
p611
Vhttp://www.bnpparibas-ip.fr/investisseur-prive-particulier/fundsheet/diversifie-monde/parvest-diversified-dynamic-classic-c-lu0089291651
p612
sVlu0107087537
p613
g52
sVlu0158087725
p614
Vhttp://www.bnpparibas-ip.fr/investisseur-prive-particulier/fundsheet/actions-europeennes/bnp-paribas-l1-equity-euro-classic-c-lu0087045034
p615
sVlu1291097423
p616
Vhttp://www.bnpparibas-ip.fr/investisseur-prive-particulier/fundsheet/actions-emergentes/bnp-paribas-easy-msci-emerging-markets-ex-controversial-weapons-track-classic-c-lu1291097340
p617
sVlu0823450191
p618
g261
sVlu0823428932
p619
Vhttp://www.bnpparibas-ip.fr/investisseur-prive-particulier/fundsheet/actions-emergentes/parvest-equity-india-classic-eur-c-lu0823428346
p620
sVlu1022808494
p621
g450
sVlu1078738058
p622
g481
sVlu0823415871
p623
g20
sVlu0828230697
p624
g366
sVlu0823396717
p625
g8
sVfr0010274035
p626
Vhttp://www.bnpparibas-ip.fr/investisseur-prive-particulier/fundsheet/actions-europeennes/cnp-actions-europe-pioneer-a-h-fr0010250050
p627
sVlu0823448294
p628
Vhttp://www.bnpparibas-ip.fr/investisseur-prive-particulier/fundsheet/obligations-internationales/parvest-bond-absolute-return-v350-classic-c-lu0823447643
p629
sVlu0107086646
p630
g358
sVlu0823447213
p631
g366
sVlu1291108303
p632
Vhttp://www.bnpparibas-ip.fr/investisseur-prive-particulier/fundsheet/actions-internationales/bnp-paribas-easy-msci-world-ex-controversial-weapons-track-privilege-h-eur-c-lu1291108998
p633
sVlu1056594747
p634
g195
sVfr0007436654
p635
Vhttp://www.bnpparibas-ip.fr/investisseur-prive-particulier/fundsheet/obligations-internationales/munich-re-placement-classique-c-fr0007436654
p636
sVlu0823448450
p637
g629
sVlu0823407340
p638
g479
sVfr0007024583
p639
Vhttp://www.bnpparibas-ip.fr/investisseur-prive-particulier/fundsheet/diversifie-monde/cortal-consors-open-patrimoine-classic-c-fr0007024583
p640
sVlu1291101555
p641
Vhttp://www.bnpparibas-ip.fr/investisseur-prive-particulier/fundsheet/actions-europeennes/bnp-paribas-easy-msci-europe-small-caps-ex-controversial-weapons-track-privilege-c-lu1291101126
p642
sVfr0010948455
p643
Vhttp://www.bnpparibas-ip.fr/investisseur-prive-particulier/fundsheet/produits-structures/everglades-classic-c-fr0010948455
p644
sVlu0823415285
p645
g234
sVlu1235106660
p646
Vhttp://www.bnpparibas-ip.fr/investisseur-prive-particulier/fundsheet/actions-europeennes/theam-quant-equity-europe-guru-c-capitalisationlu1235104293
p647
sVlu0950381748
p648
Vhttp://www.bnpparibas-ip.fr/investisseur-prive-particulier/fundsheet/actions-europeennes/bnp-paribas-easy-ftse-epra-nareit-eurozone-capped-ucits-etf-qd-d-lu0192223062
p649
sVlu0925122151
p650
g348
sVlu0089291651
p651
g612
sVfr0012169837
p652
Vhttp://www.bnpparibas-ip.fr/investisseur-prive-particulier/fundsheet/matieres-premieres/theam-quant-raw-materials-enhanced-b-eur-h-c-fr0012169860
p653
sVlu0823448377
p654
g629
sVfr0010077321
p655
Vhttp://www.bnpparibas-ip.fr/investisseur-prive-particulier/fundsheet/actions-europeennes/bnp-paribas-finance-europe-classic-c-fr0010077321
p656
sVfr0011617729
p657
g159
sVlu0823422653
p658
g290
sVlu0823383061
p659
Vhttp://www.bnpparibas-ip.fr/investisseur-prive-particulier/fundsheet/produits-de-taux-emergents/parvest-bond-europe-emerging-classic-c-lu0823382766
p660
sVlu0347712357
p661
g255
sVfr0010146894
p662
g132
sVlu1022808148
p663
g450
sVfr0010911107
p664
Vhttp://www.bnpparibas-ip.fr/investisseur-prive-particulier/fundsheet/produits-structures/appaloosa-classic-c-fr0010911107
p665
sVfr0000977555
p666
Vhttp://www.bnpparibas-ip.fr/investisseur-prive-particulier/fundsheet/diversifie-monde/gestion-moderate-international-classic-c-fr0000977555
p667
sVlu0823397525
p668
g461
sVlu0823394266
p669
g52
sVlu0823398416
p670
g286
sVlu0823443659
p671
g32
sVlu0930020085
p672
Vhttp://www.bnpparibas-ip.fr/investisseur-prive-particulier/fundsheet/produits-structures/bnp-paribas-plan-easy-future-2028-classic-c-lu0930019749
p673
sVlu0925122748
p674
g85
sVlu0111549134
p675
g523
sVfr0010565424
p676
Vhttp://www.bnpparibas-ip.fr/investisseur-prive-particulier/fundsheet/actions-internationales/theam-euro-long-vol-classic-c-fr0010565424
p677
sVlu0167238863
p678
g326
sVlu0823395743
p679
g204
sVlu1291105382
p680
Vhttp://www.bnpparibas-ip.fr/investisseur-prive-particulier/fundsheet/actions-emergentes/bnp-paribas-easy-msci-pacific-ex-japan-ex-controversial-weapons-track-classic-capitalisationlu1291105382
p681
sVfr0010146852
p682
Vhttp://www.bnpparibas-ip.fr/investisseur-prive-particulier/fundsheet/diversifie-monde/bnp-paribas-retraite-responsable-50-p-c-fr0010146852
p683
sVfr0007484399
p684
Vhttp://www.bnpparibas-ip.fr/investisseur-prive-particulier/fundsheet/marche-monetaire-eur/invest-monetaire-classic-c-fr0007484399
p685
sVlu0925123472
p686
g85
sVlu0177332490
p687
g354
sVlu0283503844
p688
g337
sVlu0823397368
p689
g461
sVlu1291106356
p690
g681
sVfr0010692301
p691
Vhttp://www.bnpparibas-ip.fr/investisseur-prive-particulier/fundsheet/produits-structures/capoeira-classic-c-fr0010692301
p692
sVlu1049884742
p693
g545
sVlu0823381792
p694
g404
sVlu1049884239
p695
g545
sVlu0154245673
p696
g560
sVlu0823382766
p697
g660
sVfr0013125663
p698
Vhttp://www.bnpparibas-ip.fr/investisseur-prive-particulier/fundsheet/actions-europeennes/theam-quant-equity-eurozone-guru-j-c-fr0013125663
p699
sVfr0011201003
p700
Vhttp://www.bnpparibas-ip.fr/investisseur-prive-particulier/fundsheet/produits-structures/bnp-paribas-gestion-active-plus-classic-c-fr0011201003
p701
sVfr0010839274
p702
Vhttp://www.bnpparibas-ip.fr/investisseur-prive-particulier/fundsheet/diversifie-monde/bnp-paribas-retraite-responsable-2028-2030-p-c-fr0010839274
p703
sVfr0010732719
p704
Vhttp://www.bnpparibas-ip.fr/investisseur-prive-particulier/fundsheet/portefeuilles-diversifies-europe/camgestion-europe-modere-classique-c-fr0010732719
p705
sVlu0823437925
p706
g42
sVfr0010714261
p707
g6
sVlu0823400766
p708
g207
sVlu1481202775
p709
Vhttp://www.bnpparibas-ip.fr/investisseur-prive-particulier/fundsheet/obligations-internationales/bnp-paribas-easy-markit-iboxx-eur-liquid-corporates-track-privilege-c-lu1291094321
p710
sVlu0823379036
p711
g46
sVfr0010276949
p712
Vhttp://www.bnpparibas-ip.fr/investisseur-prive-particulier/fundsheet/obligations-internationales/bnp-paribas-easy-markit-iboxx-liquid-sovereigns-ucits-etf-classique-c-fr0010276949
p713
sVlu0265268929
p714
g164
sVlu0903144755
p715
g261
sVlu0823443816
p716
g32
sVlu1049889972
p717
g130
sVlu0167237972
p718
Vhttp://www.bnpparibas-ip.fr/investisseur-prive-particulier/fundsheet/marche-monetaire-eur/bnp-paribas-insticash-eur-classic-c-lu0167237543
p719
sVlu0132151118
p720
g504
sVlu1056594234
p721
g195
sVlu0907251572
p722
Vhttp://www.bnpparibas-ip.fr/investisseur-prive-particulier/fundsheet/obligations-convertibles-internationales/bnp-paribas-l1-convertible-bond-world-classic-c-lu0907251572
p723
sVfr0011950583
p724
g305
sVlu0086914362
p725
g358
sVlu0957145286
p726
g120
sVlu1104113243
p727
g100
sVlu0823389852
p728
g71
sVlu1291099718
p729
Vhttp://www.bnpparibas-ip.fr/investisseur-prive-particulier/fundsheet/actions-europeennes/bnp-paribas-easy-msci-europe-ex-controversial-weapons-track-classic-c-lu1291099395
p730
sVlu0823388888
p731
g175
sVlu1120433732
p732
g300
sVlu0282885655
p733
Vhttp://www.bnpparibas-ip.fr/investisseur-prive-particulier/fundsheet/actions-europeennes/parvest-equity-europe-small-cap-classic-c-lu0212178916
p734
sVlu1291098660
p735
g376
sVlu1022394404
p736
g463
sVfr0011819002
p737
Vhttp://www.bnpparibas-ip.fr/investisseur-prive-particulier/fundsheet/obligations-europeennes/bnp-paribas-oblipar-classic-c-fr0011829225
p738
sVlu0283434859
p739
g24
sVlu0111463849
p740
g358
sVlu0907251226
p741
g596
sVfr0011279827
p742
g408
sVfr0007010632
p743
Vhttp://www.bnpparibas-ip.fr/investisseur-prive-particulier/fundsheet/portefeuilles-diversifies-europe/camgestion-ep-classique-d-fr0007010632
p744
sVlu0095613823
p745
g303
sVlu0099625146
p746
Vhttp://www.bnpparibas-ip.fr/investisseur-prive-particulier/fundsheet/obligations-internationales/parvest-flexible-bond-europe-corporate-classic-c-lu0099625146
p747
sVlu0107049875
p748
g348
sVfr0011538230
p749
Vhttp://www.bnpparibas-ip.fr/investisseur-prive-particulier/fundsheet/actions-europeennes/bnp-paribas-indice-euro-classic-c-fr0011538230
p750
sVlu0540527073
p751
Vhttp://www.bnpparibas-ip.fr/investisseur-prive-particulier/fundsheet/obligations-europeennes/bnp-paribas-flexi-i-bond-government-euro-restricted-classic-c-lu0540527073
p752
sVlu0111461124
p753
g292
sVlu0823391247
p754
Vhttp://www.bnpparibas-ip.fr/investisseur-prive-particulier/fundsheet/obligations-americaines/parvest-bond-usd-classic-eur-c-lu0823391080
p755
sVlu0159095446
p756
Vhttp://www.bnpparibas-ip.fr/investisseur-prive-particulier/fundsheet/diversifie-monde/bnp-paribas-l1-sustainable-active-allocation-classic-c-lu0087047089
p757
sVlu0075937911
p758
g527
sVfr0010077255
p759
Vhttp://www.bnpparibas-ip.fr/investisseur-prive-particulier/fundsheet/produits-structures/bnp-paribas-multistrategies-protection-80-classic-c-fr0010077255
p760
sVfr0010150458
p761
Vhttp://www.bnpparibas-ip.fr/investisseur-prive-particulier/fundsheet/actions-europeennes/bnp-paribas-easy-cac-40-ucits-etf-classique-d-fr0010150458
p762
sVlu1303481060
p763
Vhttp://www.bnpparibas-ip.fr/investisseur-prive-particulier/fundsheet/autres-fonds-actions-pays-developpes/bnp-paribas-l1-japan-classic-eur-c-lu1303481060
p764
sVfr0011222462
p765
Vhttp://www.bnpparibas-ip.fr/investisseur-prive-particulier/fundsheet/produits-de-taux-emergents/bnp-paribas-obliselect-terra-nova-2017-classic-c-fr0011222439
p766
sVlu0823444467
p767
Vhttp://www.bnpparibas-ip.fr/investisseur-prive-particulier/fundsheet/immobilier-monde/parvest-real-estate-securities-world-classic-c-lu0823444111
p768
sVlu0111478524
p769
g4
sVlu0194435318
p770
g337
sVno0010668114
p771
Vhttp://www.bnpparibas-ip.fr/investisseur-prive-particulier/fundsheet/obligations-europeennes/alfred-berg-hoyrente-classic-eur-d-no0010668114
p772
sVlu0823391080
p773
g755
sVlu0531997046
p774
g168
sVlu0159091882
p775
g504
sVlu0111478441
p776
g79
sVfr0010248310
p777
Vhttp://www.bnpparibas-ip.fr/investisseur-prive-particulier/fundsheet/actions-europeennes/cnp-actions-europe-schroders-a-h-fr0010248310
p778
sVfr0010077859
p779
Vhttp://www.bnpparibas-ip.fr/investisseur-prive-particulier/fundsheet/actions-europeennes/bnp-paribas-midcap-france-classic-c-fr0010616177
p780
sVlu0132152785
p781
g168
sVlu0823404248
p782
g296
sVlu0823428007
p783
g519
sVlu0066794479
p784
g185
sVlu0823430326
p785
g98
sVlu0823394001
p786
g303
sVlu0828230937
p787
g366
sVlu1291101985
p788
g445
sVlu0823391833
p789
g149
sVlu0111451240
p790
g266
sVlu0212175060
p791
g54
sVlu0823430243
p792
g98
sVlu0131211418
p793
Vhttp://www.bnpparibas-ip.fr/investisseur-prive-particulier/fundsheet/obligations-europeennes/parvest-bond-euro-corporate-classic-c-lu0131210360
p794
sVlu0283465069
p795
g755
sVfr0010116541
p796
Vhttp://www.bnpparibas-ip.fr/investisseur-prive-particulier/fundsheet/actions-europeennes/bnp-paribas-actions-euroland-classic-c-fr0010115410
p797
sVfr0013230232
p798
Vhttp://www.bnpparibas-ip.fr/investisseur-prive-particulier/fundsheet/obligations-europeennes/bnp-paribas-credit-12-m-classic-c-fr0013230232
p799
sVlu1049885806
p800
g423
sVlu0823431050
p801
g348
sVlu1291109293
p802
Vhttp://www.bnpparibas-ip.fr/investisseur-prive-particulier/fundsheet/actions-internationales/bnp-paribas-easy-nmx-30-infrastructure-global-ucits-etf-c-lu1291109293
p803
sVlu0547770783
p804
g719
sVlu0212180813
p805
g734
sVlu0087047089
p806
g757
sVfr0007045901
p807
Vhttp://www.bnpparibas-ip.fr/investisseur-prive-particulier/fundsheet/diversifie-monde/gestion-equilibre-international-classic-c-fr0007045901
p808
sVlu0265291822
p809
Vhttp://www.bnpparibas-ip.fr/investisseur-prive-particulier/fundsheet/obligations-convertibles-europeennes/parvest-convertible-bond-europe-small-cap-classic-c-lu0265291665
p810
sVlu1049884585
p811
g545
sVlu0265313816
p812
g164
sVlu0075933175
p813
g200
sVlu0116160465
p814
g220
sVlu0823408660
p815
g251
sVlu1056591487
p816
g555
sVlu1022400060
p817
g450
sVfr0010688077
p818
g578
sVlu0823429401
p819
g620
sVlu0111465547
p820
g747
sVfr0011383538
p821
Vhttp://www.bnpparibas-ip.fr/investisseur-prive-particulier/fundsheet/marche-monetaire-eur/bnp-paribas-invest-3-mois-classic-c-fr0010209916
p822
sVfr0007026448
p823
Vhttp://www.bnpparibas-ip.fr/investisseur-prive-particulier/fundsheet/diversifie-monde/selection-dynamique-europe-classic-c-fr0007026448
p824
sVlu0823429583
p825
g620
sVfr0010137166
p826
Vhttp://www.bnpparibas-ip.fr/investisseur-prive-particulier/fundsheet/actions-europeennes/bnp-paribas-euro-valeurs-durables-classic-c-fr0010137166
p827
sVlu0823404750
p828
g296
sVlu1022392028
p829
g459
sVfr0010076430
p830
Vhttp://www.bnpparibas-ip.fr/investisseur-prive-particulier/fundsheet/diversifie-monde/bnp-paribas-selection-dynamique-pea-classic-c-fr0010076430
p831
sVfr0010390807
p832
Vhttp://www.bnpparibas-ip.fr/investisseur-prive-particulier/fundsheet/diversifie-monde/bnp-paribas-retraite-responsable-2025-2027-p-c-fr0010390807
p833
sVfr0012538106
p834
Vhttp://www.bnpparibas-ip.fr/investisseur-prive-particulier/fundsheet/actions-internationales/bnp-paribas-strategie-privee-actions-internationales-classic-c-fr0012538106
p835
sVlu0111479092
p836
g527
sVlu0075933415
p837
g200
sVfr0010325597
p838
Vhttp://www.bnpparibas-ip.fr/investisseur-prive-particulier/fundsheet/actions-internationales/bnp-paribas-telecoms-classic-c-fr0010325597
p839
sVlu1022394826
p840
g463
sVlu0823394936
p841
g204
sVlu1056594408
p842
g195
sVlu0531774841
p843
g220
sVlu0823381362
p844
g467
sVfr0010319434
p845
Vhttp://www.bnpparibas-ip.fr/investisseur-prive-particulier/fundsheet/actions-europeennes/camgestion-actions-croissance-classic-c-fr0010319434
p846
sVlu1049884825
p847
g545
sVlu0823383145
p848
g660
sVlu0167237543
p849
g719
sVfr0011238898
p850
Vhttp://www.bnpparibas-ip.fr/investisseur-prive-particulier/fundsheet/produits-structures/3-dyneurope-classic-c-fr0011238898
p851
sVlu0950374610
p852
g122
sVlu0823449185
p853
g261
sVfr0007068044
p854
Vhttp://www.bnpparibas-ip.fr/investisseur-prive-particulier/fundsheet/actions-europeennes/bnp-paribas-easy-stoxx-europe-600-telecommunications-ucits-etf-classique-c-fr0007068044
p855
sVfr0007031562
p856
Vhttp://www.bnpparibas-ip.fr/investisseur-prive-particulier/fundsheet/actions-internationales/multigerants-dynamique-classique-c-fr0007031562
p857
sVlu1291097779
p858
g617
sVlu0823386163
p859
g244
sVfr0010108977
p860
Vhttp://www.bnpparibas-ip.fr/investisseur-prive-particulier/fundsheet/actions-internationales/bnp-paribas-actions-monde-classic-c-fr0010108977
p861
sVlu1353183533
p862
Vhttp://www.bnpparibas-ip.fr/investisseur-prive-particulier/fundsheet/rendement-absolu/theam-quant-multi-asset-diversified-c-capitalisationlu1353183533
p863
sVlu0194604798
p864
g723
sVlu0823395669
p865
g204
sVlu0249332452
p866
g257
sVlu0087045034
p867
g615
sVlu1151728596
p868
g529
sVlu0823444897
p869
g768
sVfr0007074208
p870
Vhttp://www.bnpparibas-ip.fr/investisseur-prive-particulier/fundsheet/actions-europeennes/camgestion-actions-rendement-classique-h-fr0007074208
p871
sVlu1329018219
p872
g423
sVlu0172350877
p873
g16
sVlu0823432025
p874
g153
sVfr0011102805
p875
Vhttp://www.bnpparibas-ip.fr/investisseur-prive-particulier/fundsheet/produits-structures/protected-trend-fund-a-c-fr0011102805
p876
sVlu0823380984
p877
g467
sVfr0011908094
p878
g331
sVfr0010077172
p879
Vhttp://www.bnpparibas-ip.fr/investisseur-prive-particulier/fundsheet/actions-europeennes/bnp-paribas-midcap-europe-classic-c-fr0010077172
p880
sVlu1291102447
p881
g445
sVfr0011314319
p882
g312
sVfr0010128587
p883
g502
sVlu0531757754
p884
g615
sVlu0282388437
p885
g549
sVfr0011132380
p886
Vhttp://www.bnpparibas-ip.fr/investisseur-prive-particulier/fundsheet/produits-structures/bnp-paribas-4-dragons-protection-95-2017-classic-c-fr0011132380
p887
sVlu0531774767
p888
g220
sVlu1165137149
p889
g50
sVlu0265289339
p890
Vhttp://www.bnpparibas-ip.fr/investisseur-prive-particulier/fundsheet/obligations-europeennes/parvest-sustainable-bond-euro-corporate-classic-c-lu0265288877
p891
sVlu0823449938
p892
g261
sVlu1049886283
p893
g423
sVlu0531768959
p894
g38
sVlu0107048042
p895
g337
sVlu1377382103
p896
Vhttp://www.bnpparibas-ip.fr/investisseur-prive-particulier/fundsheet/actions-europeennes/bnp-paribas-easy-equity-quality-europe-ucits-etf-c-lu1377382103
p897
sVfr0007068036
p898
Vhttp://www.bnpparibas-ip.fr/investisseur-prive-particulier/fundsheet/actions-europeennes/bnp-paribas-easy-stoxx-europe-600-utilities-ucits-etf-classique-c-fr0007068036
p899
sVfr0010107235
p900
g500
sVfr0012722882
p901
g34
sVfr0010715326
p902
Vhttp://www.bnpparibas-ip.fr/investisseur-prive-particulier/fundsheet/diversifie-monde/camgestion-g-n-ration-avenir-classic-c-fr0010715326
p903
sVlu1291109533
p904
g566
sVlu0012182639
p905
g4
sVlu0823402119
p906
g339
sVlu1235104020
p907
g647
sVlu1291096375
p908
Vhttp://www.bnpparibas-ip.fr/investisseur-prive-particulier/fundsheet/obligations-internationales/bnp-paribas-easy-markit-iboxx-global-developed-markets-liquid-100-high-yield-capped-track-privilege-rh-eur-capitalisationlu1291096375
p909
sVlu1151729727
p910
Vhttp://www.bnpparibas-ip.fr/investisseur-prive-particulier/fundsheet/actions-internationales/bnp-paribas-l1-smart-food-classic-c-lu1151729644
p911
sVlu1080341065
p912
g496
sVlu1104114647
p913
g102
sVlu0930020671
p914
g580
sVlu1165135440
p915
Vhttp://www.bnpparibas-ip.fr/investisseur-prive-particulier/fundsheet/actions-internationales/parvest-aqua-classic-c-lu1165135440
p916
sVlu0111493838
p917
g224
sVlu1163234351
p918
g179
sVlu0823385355
p919
g244
sVlu0282880698
p920
g236
sVlu0823414049
p921
g511
sVlu0212188121
p922
g12
sVlu1291099395
p923
g730
sVlu1492558348
p924
g545
sVfr0010129742
p925
g502
sVlu0111549480
p926
g40
sVlu0540527230
p927
g752
sVlu0251807045
p928
g560
sVfr0013153228
p929
g508
sVlu0010012721
p930
g381
sVlu1291094321
p931
g710
sVfr0011482686
p932
Vhttp://www.bnpparibas-ip.fr/investisseur-prive-particulier/fundsheet/marche-monetaire-eur/bnp-paribas-mois-isr-classic-c-fr0011482686
p933
sVlu0012186549
p934
Vhttp://www.bnpparibas-ip.fr/investisseur-prive-particulier/fundsheet/marche-monetaire-usd/parvest-money-market-usd-classic-c-lu0012186622
p935
sVfr0011257310
p936
g469
sVlu0194438841
p937
g266
sVlu0531998440
p938
Vhttp://www.bnpparibas-ip.fr/investisseur-prive-particulier/fundsheet/diversifie-monde/bnp-paribas-l1-diversified-world-stability-classic-c-lu0132151621
p939
sVlu0823444624
p940
g768
sVlu0823379895
p941
g46
sVlu1022394313
p942
g463
sVlu0069970746
p943
g266
sVlu1260147084
p944
Vhttp://www.bnpparibas-ip.fr/investisseur-prive-particulier/fundsheet/rendement-absolu/parworld-absolute-return-equity-neutral-classic-c-lu1260147084
p945
sVlu1104109647
p946
g303
sVlu0823387641
p947
g257
sVlu0823399810
p948
g207
sVlu1235104293
p949
g647
sVlu1049885988
p950
g423
sVlu0192223062
p951
g649
sVlu1163234518
p952
g179
sVlu0823416093
p953
g20
sVlu0823435127
p954
Vhttp://www.bnpparibas-ip.fr/investisseur-prive-particulier/fundsheet/actions-americaines/parvest-equity-usa-growth-classic-eur-c-lu0823434237
p955
sVfr0010629147
p956
Vhttp://www.bnpparibas-ip.fr/investisseur-prive-particulier/fundsheet/actions-europeennes/cortal-consors-open-croissance-classic-c-fr0010629147
p957
sVfr0013041530
p958
g484
sVlu1104112195
p959
Vhttp://www.bnpparibas-ip.fr/investisseur-prive-particulier/fundsheet/actions-emergentes/parvest-equity-new-frontiers-classic-c-lu1104111890
p960
sVlu0111481668
p961
g69
sVlu0258897114
p962
Vhttp://www.bnpparibas-ip.fr/investisseur-prive-particulier/fundsheet/produits-structures/bnp-paribas-plan-international-derivatives-classic-c-lu0258897114
p963
sVfr0013127164
p964
g269
sVlu0823434740
p965
g955
sVlu0823389696
p966
g71
sVlu0823408231
p967
g251
sVlu0116160549
p968
g220
sVlu0823409809
p969
g280
sVlu0823419782
p970
Vhttp://www.bnpparibas-ip.fr/investisseur-prive-particulier/fundsheet/actions-internationales/parvest-equity-world-materials-classic-c-lu0823419436
p971
sVfr0012443174
p972
g263
sVlu1022808577
p973
g450
sVlu0823450605
p974
g261
sVlu0823409718
p975
g280
sVfr0010077206
p976
Vhttp://www.bnpparibas-ip.fr/investisseur-prive-particulier/fundsheet/produits-structures/bnp-paribas-actions-euro-protege-classic-c-fr0010077206
p977
sVlu0190305630
p978
g404
sVfr0010376798
p979
Vhttp://www.bnpparibas-ip.fr/investisseur-prive-particulier/fundsheet/diversifie-monde/fundquest-balanced-classic-c-fr0010376798
p980
sVlu1291099478
p981
g730
sVlu0531758133
p982
g381
sVfr0011908078
p983
g331
sVlu0111453535
p984
g200
sVlu0111482476
p985
g69
sVfr0012591592
p986
Vhttp://www.bnpparibas-ip.fr/investisseur-prive-particulier/fundsheet/diversifie-monde/bnpp-european-flexible-income-a-h-fr0012591600
p987
sVlu0111469705
p988
g612
sVlu1377381717
p989
g2
sVfr0013176344
p990
g322
sVbe0146937793
p991
Vhttp://www.bnpparibas-ip.fr/investisseur-prive-particulier/fundsheet/diversifie-monde/bnp-paribas-b-strategy-global-neutral-classic-d-be0146937793
p992
sVlu1056591990
p993
g555
sVlu1377381980
p994
Vhttp://www.bnpparibas-ip.fr/investisseur-prive-particulier/fundsheet/actions-americaines/bnp-paribas-easy-equity-low-vol-us-ucits-etf-c-lu1377381980
p995
sVlu0111444898
p996
g337
sVlu0823429666
p997
g620
sVlu0930019319
p998
g307
sVfr0012443182
p999
g263
sVlu0879078565
p1000
g755
sVfr0010028779
p1001
Vhttp://www.bnpparibas-ip.fr/investisseur-prive-particulier/fundsheet/actions-americaines/bnp-paribas-actions-usa-classic-c-fr0010028779
p1002
sVlu1165135796
p1003
g916
sVfr0010101493
p1004
Vhttp://www.bnpparibas-ip.fr/investisseur-prive-particulier/fundsheet/actions-europeennes/bnp-paribas-valeurs-francaises-classic-c-fr0010028902
p1005
sVfr0010098210
p1006
g536
sVfr0007044698
p1007
Vhttp://www.bnpparibas-ip.fr/investisseur-prive-particulier/fundsheet/diversifie-monde/borghese-finance-classique-c-fr0007044698
p1008
sVlu1235113872
p1009
Vhttp://www.bnpparibas-ip.fr/investisseur-prive-particulier/fundsheet/actions-americaines/theam-quant-equity-us-income-protected-protected-i-c-lu1235113872
p1010
sVlu1342920672
p1011
Vhttp://www.bnpparibas-ip.fr/investisseur-prive-particulier/fundsheet/portefeuilles-diversifies-emergents/parvest-multi-asset-income-emerging-classic-eur-c-lu1342920672
p1012
sVlu0212176621
p1013
g54
sVno0010446552
p1014
g772
sVlu0190306364
p1015
g404
sVlu1049888578
p1016
g130
sVlu0083138064
p1017
g292
sVfr0011540152
p1018
Vhttp://www.bnpparibas-ip.fr/investisseur-prive-particulier/fundsheet/produits-structures/bnp-paribas-environnement-2019-classic-c-fr0011540152
p1019
sVlu1163234609
p1020
g179
sVlu1291091228
p1021
Vhttp://www.bnpparibas-ip.fr/investisseur-prive-particulier/fundsheet/actions-europeennes/bnp-paribas-easy-ftse-epra-nareit-developed-europe-ucits-etf-qd-d-lu1291091228
p1022
sVlu0360646680
p1023
Vhttp://www.bnpparibas-ip.fr/investisseur-prive-particulier/fundsheet/actions-europeennes/parvest-flexible-equity-europe-classic-c-lu0360646680
p1024
sVbe0146935771
p1025
Vhttp://www.bnpparibas-ip.fr/investisseur-prive-particulier/fundsheet/diversifie-monde/bnp-paribas-b-strategy-global-defensive-classic-c-be0146934766
p1026
sVlu0823392302
p1027
g149
sVbe0163305544
p1028
Vhttp://www.bnpparibas-ip.fr/investisseur-prive-particulier/fundsheet/diversifie-monde/bnp-paribas-b-strategy-global-dynamic-classic-d-be0163305544
p1029
sVfr0010655597
p1030
Vhttp://www.bnpparibas-ip.fr/investisseur-prive-particulier/fundsheet/actions-europeennes/bnp-paribas-easy-low-carbon-100-europe-ucits-etf-classique-c-fr0010655597
p1031
sVlu0823425912
p1032
g183
sVlu0823426720
p1033
g183
sVlu0823447643
p1034
g629
sVfr0010137174
p1035
g827
sVlu0282274348
p1036
g249
sVlu0283519337
p1037
g348
sVlu1049887331
p1038
g423
sVfr0000442014
p1039
g640
sVfr0010997858
p1040
Vhttp://www.bnpparibas-ip.fr/investisseur-prive-particulier/fundsheet/diversifie-monde/camgestion-g-n-ration-2026-30-classic-c-fr0010997858
p1041
sVlu0823444970
p1042
g768
sVlu1022396367
p1043
g204
sVlu0265313147
p1044
g253
sVlu1120436248
p1045
g343
sVlu0823389001
p1046
g175
sVfr0007433669
p1047
Vhttp://www.bnpparibas-ip.fr/investisseur-prive-particulier/fundsheet/diversifie-monde/gf-euro-convictions-classique-c-fr0007433669
p1048
sVlu1120436164
p1049
g343
sVlu1291100664
p1050
Vhttp://www.bnpparibas-ip.fr/investisseur-prive-particulier/fundsheet/actions-europeennes/bnp-paribas-easy-msci-europe-ex-uk-ex-controversial-weapons-track-classic-c-lu1291100151
p1051
sVlu1022398819
p1052
g271
sVfr0007068077
p1053
Vhttp://www.bnpparibas-ip.fr/investisseur-prive-particulier/fundsheet/actions-europeennes/bnp-paribas-easy-stoxx-europe-600-banks-ucits-etf-classique-c-fr0007068077
p1054
sVlu0879078482
p1055
g755
sVlu0823423032
p1056
g118
sVlu0823400840
p1057
g207
sVfr0010130765
p1058
Vhttp://www.bnpparibas-ip.fr/investisseur-prive-particulier/fundsheet/obligations-europeennes/bnp-paribas-obli-etat-classic-c-fr0010130765
p1059
sVlu0377063960
p1060
g442
sVfr0011742550
p1061
Vhttp://www.bnpparibas-ip.fr/investisseur-prive-particulier/fundsheet/matieres-premieres/theam-quant-dynamic-raw-materials-a-usd-c-fr0011742527
p1062
sVlu0823433429
p1063
g75
sVlu0823443493
p1064
g32
sVlu1291107917
p1065
g161
sVlu0212178916
p1066
g734
sVlu1151729644
p1067
g911
sVlu0159059996
p1068
g114
sVlu0930020325
p1069
Vhttp://www.bnpparibas-ip.fr/investisseur-prive-particulier/fundsheet/produits-structures/bnp-paribas-plan-easy-future-2033-classic-c-lu0930020168
p1070
sVlu0154246051
p1071
g560
sVfr0010076612
p1072
g151
sVlu1291091814
p1073
g228
sVfr0000294738
p1074
Vhttp://www.bnpparibas-ip.fr/investisseur-prive-particulier/fundsheet/marche-monetaire-eur/cardif-tresorerie-classic-c-fr0000294738
p1075
sVfr0007445119
p1076
Vhttp://www.bnpparibas-ip.fr/investisseur-prive-particulier/fundsheet/actions-emergentes/camgestion-emerging-bric-classique-c-fr0007445119
p1077
sVfr0010076943
p1078
g116
sVfr0011550193
p1079
g181
sVlu0225845535
p1080
g236
sVlu1104108755
p1081
g56
sVfr0010714253
p1082
g6
sVlu1291103338
p1083
g551
sVlu0662594125
p1084
g303
sVfr0010077412
p1085
Vhttp://www.bnpparibas-ip.fr/investisseur-prive-particulier/fundsheet/actions-europeennes/bnp-paribas-developpement-humain-classic-c-fr0010077412
p1086
sVlu0131210790
p1087
g794
sVfr0010716472
p1088
Vhttp://www.bnpparibas-ip.fr/investisseur-prive-particulier/fundsheet/diversifie-monde/camgestion-g-n-ration-2016-20-classic-c-fr0010716472
p1089
sVlu0930018857
p1090
Vhttp://www.bnpparibas-ip.fr/investisseur-prive-particulier/fundsheet/produits-structures/bnp-paribas-plan-easy-future-2018-classic-c-lu0930018691
p1091
sVlu1022394743
p1092
g463
sVfr0010077388
p1093
g155
sVlu1342920755
p1094
g1012
sVfr0011576610
p1095
Vhttp://www.bnpparibas-ip.fr/investisseur-prive-particulier/fundsheet/obligations-europeennes/bnp-paribas-deposit-moyen-terme-plus-classic-c-fr0011576610
p1096
sVlu0823382170
p1097
g59
sVfr0010315093
p1098
Vhttp://www.bnpparibas-ip.fr/investisseur-prive-particulier/fundsheet/produits-structures/bnp-paribas-protection-monde-classic-c-fr0010315093
p1099
sVlu0823398176
p1100
g461
sVlu1049895516
p1101
g542
sVlu0107086562
p1102
g102
sVlu0190304583
p1103
g404
sVfr0010106849
p1104
g212
sVfr0007068101
p1105
Vhttp://www.bnpparibas-ip.fr/investisseur-prive-particulier/fundsheet/actions-europeennes/bnp-paribas-easy-stoxx-europe-600-insurance-ucits-etf-classique-c-fr0007068101
p1106
sVlu0930020168
p1107
g1070
sVlu0823404834
p1108
g296
sVlu0823413587
p1109
g511
sVfr0007041496
p1110
Vhttp://www.bnpparibas-ip.fr/investisseur-prive-particulier/fundsheet/diversifie-monde/parjet-dynamique-classique-c-fr0007041496
p1111
sVlu0823410724
p1112
g48
sVlu0265288950
p1113
g891
sVfr0011383553
p1114
Vhttp://www.bnpparibas-ip.fr/investisseur-prive-particulier/fundsheet/marche-monetaire-eur/bnp-paribas-tresorerie-3-mois-classic-c-fr0010125880
p1115
sVlu0823447999
p1116
g629
sVlu1022400813
p1117
g450
sVlu0251806666
p1118
g48
sVlu1049888149
p1119
g423
sVlu0251804968
p1120
g337
sVfr0010021576
p1121
g683
sVlu0823381958
p1122
g59
sVlu0823380802
p1123
g467
sVfr0010536144
p1124
g750
sVfr0011046085
p1125
Vhttp://www.bnpparibas-ip.fr/investisseur-prive-particulier/fundsheet/marche-monetaire-eur/bnp-paribas-deposit-classic-c-fr0011046085
p1126
sVlu0950372838
p1127
g360
sVlu0823413074
p1128
g511
sVlu0823411029
p1129
g48
sVlu0089290844
p1130
g612
sVlu1104111114
p1131
g734
sVlu0823425086
p1132
g431
sVlu0251809090
p1133
g348
sVfr0007074356
p1134
Vhttp://www.bnpparibas-ip.fr/investisseur-prive-particulier/fundsheet/actions-internationales/icp-evolution-classique-h-fr0007074356
p1135
sVlu0406803063
p1136
g87
sVno0010668106
p1137
g772
sVlu1104111890
p1138
g960
sVlu0406803147
p1139
g87
sVlu1049896084
p1140
g542
sVfr0011501659
p1141
Vhttp://www.bnpparibas-ip.fr/investisseur-prive-particulier/fundsheet/marche-monetaire-eur/invest-monetaire-4-classic-c-fr0011501659
p1142
sVlu0823428346
p1143
g620
sVlu0823425243
p1144
g431
sVlu0823411375
p1145
g48
sVlu0823416416
p1146
g20
sVlu0265308063
p1147
g891
sVlu0828231075
p1148
g366
sVfr0007035365
p1149
g61
sVlu0823389266
p1150
g175
sVlu1049888651
p1151
g130
sVlu0107069048
p1152
g79
sVlu0823422141
p1153
g290
sVlu0265268689
p1154
g164
sVlu1291104062
p1155
Vhttp://www.bnpparibas-ip.fr/investisseur-prive-particulier/fundsheet/actions-americaines/bnp-paribas-easy-msci-north-america-ex-controversial-weapons-track-classic-c-lu1291103684
p1156
sVlu1291103684
p1157
g1156
sVfr0010028969
p1158
g198
sVlu0823390439
p1159
g71
sVlu0774755085
p1160
g440
sVlu0111549308
p1161
g40
sVfr0010925123
p1162
Vhttp://www.bnpparibas-ip.fr/investisseur-prive-particulier/fundsheet/produits-structures/bnp-paribas-europe-plus-2019-classic-c-fr0010925123
p1163
sVfr0010177527
p1164
Vhttp://www.bnpparibas-ip.fr/investisseur-prive-particulier/fundsheet/actions-internationales/camgestion-avenir-investissement-classic-c-fr0010177527
p1165
sVlu0774754435
p1166
Vhttp://www.bnpparibas-ip.fr/investisseur-prive-particulier/fundsheet/actions-europeennes/parworld-quant-equity-europe-guru-classic-c-lu0774754435
p1167
sVlu0879078136
p1168
g755
sVfr0013140571
p1169
Vhttp://www.bnpparibas-ip.fr/investisseur-prive-particulier/fundsheet/actions-zone-euro/theam-quant-equity-eurozone-income-defensive-j-c-fr0013140571
p1170
sVlu1056594317
p1171
g195
sVfr0012740934
p1172
Vhttp://www.bnpparibas-ip.fr/investisseur-prive-particulier/fundsheet/actions-emergentes/bnp-paribas-easy-next-11-ucits-etf-eur-c-c-fr0012739423
p1173
sVlu0089277312
p1174
g249
sVlu0823426308
p1175
g183
sVlu0823382253
p1176
g59
sVlu0531995693
p1177
g504
sVfr0010263475
p1178
g778
sVfr0007056312
p1179
Vhttp://www.bnpparibas-ip.fr/investisseur-prive-particulier/fundsheet/diversifie-monde/gf-patrimoine-convictions-classique-c-fr0007056312
p1180
sVlu1104112609
p1181
g48
sVlu0823419436
p1182
g971
sVfr0012739928
p1183
g1173
sVlu0930019079
p1184
g222
sVfr0011550177
p1185
g484
sVlu0111464060
p1186
g249
sVlu0167239168
p1187
g326
sVlu0107058785
p1188
g266
sVlu0823385272
p1189
g244
sVfr0000421802
p1190
Vhttp://www.bnpparibas-ip.fr/investisseur-prive-particulier/fundsheet/diversifie-monde/carrefour-selection-classique-h-fr0000421802
p1191
sVlu0176506888
p1192
g381
sVfr0010116574
p1193
g218
sVlu0282388783
p1194
g549
sVlu1049889030
p1195
g130
sVlu0531757911
p1196
g381
sVlu0282274421
p1197
g249
sVlu0249367086
p1198
g257
sVlu1104113326
p1199
g100
sVfr0010147512
p1200
g414
sVlu0823407936
p1201
g251
sVlu1481201611
p1202
g897
sVfr0010133892
p1203
Vhttp://www.bnpparibas-ip.fr/investisseur-prive-particulier/fundsheet/obligations-internationales/bnp-paribas-obli-monde-classic-c-fr0010133892
p1204
sVfr0007020094
p1205
Vhttp://www.bnpparibas-ip.fr/investisseur-prive-particulier/fundsheet/marche-monetaire-eur/invest-monetaire-3-classic-c-fr0007020094
p1206
sVlu0038743380
p1207
g102
sVlu1120431108
p1208
g516
sVlu0245286934
p1209
g362
sVfr0011351717
p1210
Vhttp://www.bnpparibas-ip.fr/investisseur-prive-particulier/fundsheet/diversifie-monde/bnp-paribas-retraite-responsable-2031-2033-p-c-fr0011351717
p1211
sVfr0010209916
p1212
g822
sVlu0890553851
p1213
g955
sVlu0823434070
p1214
g75
sVlu0281906387
p1215
g253
sVlu1165136505
p1216
g36
sVlu0236672407
p1217
Vhttp://www.bnpparibas-ip.fr/investisseur-prive-particulier/fundsheet/diversifie-monde/bnp-paribas-quam-fund-low-vol-classic-c-lu0236672407
p1218
sVlu0012181748
p1219
g348
sVlu1481201298
p1220
g995
sVfr0011628288
p1221
g111
sVlu0159093748
p1222
g939
sVlu0823397103
p1223
g461
sVlu0111460589
p1224
g935
sVfr0011774686
p1225
Vhttp://www.bnpparibas-ip.fr/investisseur-prive-particulier/fundsheet/obligations-europeennes/bnp-paribas-obli-entreprises-classic-c-fr0011774686
p1226
sVlu0265292556
p1227
g810
sVlu1291101126
p1228
g642
sVlu0823408157
p1229
g251
sVlu0956005572
p1230
g122
sVfr0011585546
p1231
g106
sVlu0823411532
p1232
g48
sVfr0011175645
p1233
g218
sVlu1022392291
p1234
g459
sVlu0823411961
p1235
g166
sVlu1481201538
p1236
g226
sVlu1481200308
p1237
Vhttp://www.bnpparibas-ip.fr/investisseur-prive-particulier/fundsheet/obligations-internationales/bnp-paribas-easy-barclays-us-treasury-ucits-etf-c-lu1481200308
p1238
sVfr0012088870
p1239
Vhttp://www.bnpparibas-ip.fr/investisseur-prive-particulier/fundsheet/diversifie-monde/bnp-paribas-convictions-a-c-fr0012088870
p1240
sVlu0270761579
p1241
g114
sVlu0132152199
p1242
g939
sVfr0011210129
p1243
Vhttp://www.bnpparibas-ip.fr/investisseur-prive-particulier/fundsheet/diversifie-monde/bnp-paribas-selection-flexible-classic-c-fr0011210129
p1244
sVlu0823407001
p1245
g479
sVfr0010168351
p1246
Vhttp://www.bnpparibas-ip.fr/investisseur-prive-particulier/fundsheet/actions-europeennes/camgestion-situations-sp-ciales-classique-c-fr0010168351
p1247
sVlu0069970662
p1248
g266
sVfr0010732693
p1249
Vhttp://www.bnpparibas-ip.fr/investisseur-prive-particulier/fundsheet/portefeuilles-diversifies-europe/camgestion-europe-offensif-classique-c-fr0010732693
p1250
sVlu0831546592
p1251
Vhttp://www.bnpparibas-ip.fr/investisseur-prive-particulier/fundsheet/actions-internationales/bnp-paribas-l1-equity-world-aqua-classic-c-lu0831546592
p1252
sVlu1049895193
p1253
g542
sVlu0823404594
p1254
g296
sVlu1353183616
p1255
g863
sVlu1291108642
p1256
g633
sVlu0265267285
p1257
g253
sVlu0423950210
p1258
g120
sVlu0177332730
p1259
g354
sVfr0012169860
p1260
g653
sVlu0177332227
p1261
g354
sVlu0823415442
p1262
g234
sVfr0011829225
p1263
g738
sVlu0823429823
p1264
g98
sVlu0823434401
p1265
g955
sVfr0011222439
p1266
g766
sVlu0823434237
p1267
g955
sVlu0823416929
p1268
g416
sVlu1291105895
p1269
g681
sVlu0111547609
p1270
g523
sVlu0158989177
p1271
g220
sVfr0010703355
p1272
Vhttp://www.bnpparibas-ip.fr/investisseur-prive-particulier/fundsheet/actions-europeennes/maif-investissement-responsable-europe-p-c-fr0010703355
p1273
sVlu0823438733
p1274
g42
sVlu0823450514
p1275
g261
sVfr0011150010
p1276
Vhttp://www.bnpparibas-ip.fr/investisseur-prive-particulier/fundsheet/produits-structures/protected-target-alpha-fund-a-c-fr0011150010
p1277
sVfr0011482694
p1278
g933
sVlu0547771328
p1279
g356
sVlu0823426993
p1280
g183
sVfr0012459378
p1281
Vhttp://www.bnpparibas-ip.fr/investisseur-prive-particulier/fundsheet/matieres-premieres/theam-quant-raw-materials-income-i-usd-c-fr0012902278
p1282
sVlu0823420954
p1283
g971
sVlu0012182399
p1284
g79
sVlu0225846426
p1285
g236
sVfr0012704856
p1286
Vhttp://www.bnpparibas-ip.fr/investisseur-prive-particulier/fundsheet/obligations-europeennes/bnp-paribas-lcr-1-classic-c-fr0012704856
p1287
sVlu0823380638
p1288
g523
sVfr0007046123
p1289
Vhttp://www.bnpparibas-ip.fr/investisseur-prive-particulier/fundsheet/diversifie-monde/gestion-dynamique-international-classic-c-fr0007046123
p1290
sVlu1291100409
p1291
g1051
sVfr0007448568
p1292
Vhttp://www.bnpparibas-ip.fr/investisseur-prive-particulier/fundsheet/autres-actifs-diversifies-pays-developpes/fracom-classique-d-fr0007448568
p1293
sVfr0010102095
p1294
Vhttp://www.bnpparibas-ip.fr/investisseur-prive-particulier/fundsheet/actions-europeennes/camgestion-rendactis-classique-h-fr0010102095
p1295
sVlu0107087610
p1296
g303
sVlu1291100151
p1297
g1051
sVfr0012443190
p1298
g263
sVlu1022401118
p1299
g450
sVlu0265288877
p1300
g891
sVlu0823401905
p1301
g339
sVlu0823418545
p1302
g147
sVlu0107072935
p1303
g527
sVfr0013146347
p1304
Vhttp://www.bnpparibas-ip.fr/investisseur-prive-particulier/fundsheet/obligations-internationales/theam-quant-fi-high-vol-super-x-c-fr0013146347
p1305
sVfr0012598530
p1306
g14
sVfr0007068093
p1307
Vhttp://www.bnpparibas-ip.fr/investisseur-prive-particulier/fundsheet/actions-europeennes/bnp-paribas-easy-stoxx-europe-600-health-care-ucits-etf-classique-c-fr0007068093
p1308
sVlu0131210360
p1309
g794
sVlu1104115610
p1310
g590
sVlu1022400656
p1311
g450
sVlu0823378905
p1312
g46
sVbe0146934766
p1313
g1026
sVlu0012181318
p1314
g337
sVfr0013217767
p1315
g1170
sVlu1303481904
p1316
Vhttp://www.bnpparibas-ip.fr/investisseur-prive-particulier/fundsheet/actions-internationales/bnp-paribas-l1-usa-classic-c-lu1303481904
p1317
sVfr0012740975
p1318
g346
sVlu1104116345
p1319
g590
sVlu1303480849
p1320
g764
sVfr0013127156
p1321
g269
sVlu0531998010
p1322
g757
sVlu1353195891
p1323
Vhttp://www.bnpparibas-ip.fr/investisseur-prive-particulier/fundsheet/actions-europeennes/theam-quant-equity-europe-climate-care-c-capitalisationlu1353195891
p1324
sVlu0823407266
p1325
g479
sVlu1104116261
p1326
g590
sVlu0087047162
p1327
g757
sVlu1049891796
p1328
g216
sVfr0011314285
p1329
g312
sVfr0010077230
p1330
Vhttp://www.bnpparibas-ip.fr/investisseur-prive-particulier/fundsheet/produits-structures/bnp-paribas-actions-monde-protege-classic-c-fr0010077230
p1331
sVlu0012181664
p1332
g348
sVfr0010155226
p1333
Vhttp://www.bnpparibas-ip.fr/investisseur-prive-particulier/fundsheet/actions-europeennes/camgestion-actions-france-classique-c-fr0010155226
p1334
sVlu1056593855
p1335
g90
sVfr0010712745
p1336
g386
sVlu0823420525
p1337
g971
sVfr0012686046
p1338
g378
sVlu0925122581
p1339
g560
sVlu1291108998
p1340
g633
sVfr0012740983
p1341
g346
sVlu0270761819
p1342
g18
sVlu1080341495
p1343
g496
sVlu0823382840
p1344
g660
sVfr0013176336
p1345
g322
sVlu0823387138
p1346
g244
sVlu0749572268
p1347
Vhttp://www.bnpparibas-ip.fr/investisseur-prive-particulier/fundsheet/obligations-europeennes/bnp-paribas-flexi-i-bond-euro-focus-corporate-classic-c-lu0749572268
p1348
sVlu0823427025
p1349
g183
sVlu1291097340
p1350
g617
sVfr0012892453
p1351
Vhttp://www.bnpparibas-ip.fr/investisseur-prive-particulier/fundsheet/produits-structures/athena-decembre-2023-classic-c-fr0012892453
p1352
sVfr0007031539
p1353
Vhttp://www.bnpparibas-ip.fr/investisseur-prive-particulier/fundsheet/diversifie-monde/multigerants-patrimoine-classique-c-fr0007031539
p1354
sVfr0007048160
p1355
Vhttp://www.bnpparibas-ip.fr/investisseur-prive-particulier/fundsheet/diversifie-monde/selection-equilibre-europe-classic-c-fr0007048160
p1356
sVlu0823430755
p1357
g98
sVlu0823435473
p1358
g955
sVlu0823444111
p1359
g768
sVlu1049884312
p1360
g545
sVlu1291108485
p1361
g633
sVfr0011572502
p1362
Vhttp://www.bnpparibas-ip.fr/investisseur-prive-particulier/fundsheet/diversifie-monde/fundquest-patrimoine-classic-c-fr0010986497
p1363
sVlu0251807987
p1364
g266
sVfr0013230216
p1365
g799
sVfr0012649275
p1366
Vhttp://www.bnpparibas-ip.fr/investisseur-prive-particulier/fundsheet/produits-structures/athena-aout-2023-classic-c-fr0012649275
p1367
sVlu0823421846
p1368
g290
sVfr0010250050
p1369
g627
sVlu1120436677
p1370
g343
sVlu0823427611
p1371
g519
sVfr0011693100
p1372
g111
sVfr0011534668
p1373
Vhttp://www.bnpparibas-ip.fr/investisseur-prive-particulier/fundsheet/obligations-europeennes/bnp-paribas-fixed-income-moderate-classic-c-fr0011534668
p1374
sVfr0012739423
p1375
g1173
sVfr0010376822
p1376
Vhttp://www.bnpparibas-ip.fr/investisseur-prive-particulier/fundsheet/diversifie-monde/fundquest-dynamic-classic-c-fr0010376822
p1377
sVfr0010378570
p1378
Vhttp://www.bnpparibas-ip.fr/investisseur-prive-particulier/fundsheet/actions-internationales/bnp-paribas-easy-dj-islamic-market-titans-100-ucits-etf-classique-h-fr0010378570
p1379
sVfr0010018341
p1380
Vhttp://www.bnpparibas-ip.fr/investisseur-prive-particulier/fundsheet/actions-europeennes/bnp-paribas-easy-stoxx-europe-600-construction-materials-ucits-etf-classique-c-fr0010018341
p1381
sVlu0075938133
p1382
g527
sVlu0925123555
p1383
g85
sVfr0010115410
p1384
g797
sVfr0010713610
p1385
g6
sVlu0154245756
p1386
g560
sVlu0265308576
p1387
g810
sVlu0930018691
p1388
g1091
sVlu0930019749
p1389
g673
sVlu0823434583
p1390
g955
sVlu0111493325
p1391
g224
sVlu0111491469
p1392
g224
sVlu0212196652
p1393
g560
sVlu0132151621
p1394
g939
sVlu0010001013
p1395
g18
sVlu0930020838
p1396
g447
sVlu0347711540
p1397
g255
sVfr0010576769
p1398
g388
sVlu0823411888
p1399
g166
sVlu0823432884
p1400
g153
sVlu0347712274
p1401
g255
sVlu0823413827
p1402
g511
sVfr0007068069
p1403
Vhttp://www.bnpparibas-ip.fr/investisseur-prive-particulier/fundsheet/actions-europeennes/bnp-paribas-easy-stoxx-europe-600-technology-ucits-etf-classique-c-fr0007068069
p1404
sVfr0010125880
p1405
g1115
sVfr0007031588
p1406
Vhttp://www.bnpparibas-ip.fr/investisseur-prive-particulier/fundsheet/diversifie-monde/multigerants-equilibre-classique-c-fr0007031588
p1407
sVlu0282389674
p1408
g549
sVfr0012902278
p1409
g1282
sVlu0131212812
p1410
g794
sVfr0010616177
p1411
g780
sVfr0010130773
p1412
g1059
sVlu0236673397
p1413
g187
sVfr0010146530
p1414
g414
sVlu0950373216
p1415
g360
sVlu0107059080
p1416
g185
sVlu0087045117
p1417
g615
sVlu0265266980
p1418
g253
sVfr0010986497
p1419
g1363
sVlu0325599487
p1420
g8
sVlu0823424279
p1421
g118
sVlu0823379622
p1422
g46
sVlu1235101356
p1423
g423
sVfr0013058021
p1424
Vhttp://www.bnpparibas-ip.fr/investisseur-prive-particulier/fundsheet/actions-emergentes/cardif-countries-convictions-classic-h-fr0013058021
p1425
sVlu0089276934
p1426
g249
sVlu1291104575
p1427
g1156
sVfr0012459386
p1428
g1282
sVfr0010018333
p1429
Vhttp://www.bnpparibas-ip.fr/investisseur-prive-particulier/fundsheet/actions-europeennes/bnp-paribas-easy-stoxx-europe-600-automobiles-parts-ucits-etf-classique-c-fr0010018333
p1430
sVfr0010112094
p1431
g454
sVfr0011314335
p1432
g283
sVfr0010052266
p1433
Vhttp://www.bnpparibas-ip.fr/investisseur-prive-particulier/fundsheet/obligations-convertibles-europeennes/perseis-avantage-convertibles-classic-c-fr0010052266
p1434
sVlu1165137495
p1435
g50
sVfr0011550185
p1436
g484
sVlu1049895862
p1437
g542
sVlu1056591727
p1438
g555
sVfr0007449327
p1439
Vhttp://www.bnpparibas-ip.fr/investisseur-prive-particulier/fundsheet/marche-monetaire-eur/invest-monetaire-2-classic-c-fr0007449327
p1440
sVlu0823414635
p1441
g234
sVlu0283510112
p1442
g185
sVlu0012186622
p1443
g935
sVlu0823413660
p1444
g511
sVlu0823404917
p1445
g296
sVfr0012208742
p1446
Vhttp://www.bnpparibas-ip.fr/investisseur-prive-particulier/fundsheet/produits-structures/c-quadrat-nachhaltigkeit-garant-80-a-eur-c-fr0012208742
p1447
sVlu1165135879
p1448
g916
sVfr0000980120
p1449
Vhttp://www.bnpparibas-ip.fr/investisseur-prive-particulier/fundsheet/actions-europeennes/bnp-paribas-floreal-100-classic-c-fr0000980120
p1450
sVlu0099624925
p1451
g747
sVlu1370930734
p1452
Vhttp://www.bnpparibas-ip.fr/investisseur-prive-particulier/fundsheet/actions-europeennes/bnp-paribas-l1-equity-europe-defi-classic-c-lu1370930734
p1453
sVfr0010077396
p1454
g465
sVlu0360646763
p1455
g1024
sVlu0212178676
p1456
g734
sVlu0823429153
p1457
g620
sVlu0823389936
p1458
g71
sVlu0265291665
p1459
g810
sVfr0012591600
p1460
g987
sVlu0823411706
p1461
g166
sVlu0823412696
p1462
g166
sVlu1377382285
p1463
g333
sVfr0010652743
p1464
Vhttp://www.bnpparibas-ip.fr/investisseur-prive-particulier/fundsheet/obligations-europeennes/camgestion-obligations-europe-classic-c-fr0010652743
p1465
sVlu0823387211
p1466
g244
sVlu0823428429
p1467
g620
sVfr0012169852
p1468
g653
sVlu0823400097
p1469
g207
sVlu0102023610
p1470
g52
sVlu1353195974
p1471
g1324
sVlu0081706904
p1472
g571
sVfr0013049426
p1473
Vhttp://www.bnpparibas-ip.fr/investisseur-prive-particulier/fundsheet/diversifie-monde/bnp-paribas-retraite-responsable-2034-2036-p-c-fr0013049426
p1474
sVlu0043962355
p1475
g38
sVfr0012892461
p1476
Vhttp://www.bnpparibas-ip.fr/investisseur-prive-particulier/fundsheet/produits-structures/athena-semi-airbag-decembre-2023-classic-c-fr0012892461
p1477
sVlu0107087297
p1478
g747
sVlu0212180490
p1479
g734
sVfr0010028902
p1480
g1005
sVfr0007496047
p1481
Vhttp://www.bnpparibas-ip.fr/investisseur-prive-particulier/fundsheet/marche-monetaire-eur/bnp-paribas-cash-invest-classic-c-fr0007496047
p1482
sVlu0823407423
p1483
g479
sVlu0823417810
p1484
g147
sVlu0132152439
p1485
g168
sVlu1120436321
p1486
g343
sVlu0823403356
p1487
g294
sVlu0823381446
p1488
g467
sVlu1353185314
p1489
g863
sVlu0265268762
p1490
g164
sVfr0012688430
p1491
g1096
sVfr0010174425
p1492
Vhttp://www.bnpparibas-ip.fr/investisseur-prive-particulier/fundsheet/obligations-europeennes/bnp-paribas-1-an-protection-99-classic-c-fr0010174425
p1493
sVlu0823388615
p1494
g175
sVlu1150259296
p1495
g412
sVfr0011742527
p1496
g1062
sVlu1080341818
p1497
g496
sVfr0011079524
p1498
Vhttp://www.bnpparibas-ip.fr/investisseur-prive-particulier/fundsheet/produits-structures/bnp-paribas-gestion-active-2-classic-c-fr0011079524
p1499
sVlu1104108243
p1500
g56
sVfr0011142074
p1501
Vhttp://www.bnpparibas-ip.fr/investisseur-prive-particulier/fundsheet/produits-structures/bnp-paribas-gestion-active-3-classic-c-fr0011142074
p1502
sVlu0823424782
p1503
g431
sVlu0823438220
p1504
g42
sVlu0749572425
p1505
g1348
sVfr0013073780
p1506
Vhttp://www.bnpparibas-ip.fr/investisseur-prive-particulier/fundsheet/produits-structures/croissance-europe-2022-classic-c-fr0013073780
p1507
sVfr0010912873
p1508
g10
sVlu0531552510
p1509
g442
sVlu0823408744
p1510
g251
s.