(dp0
Vlu1481201025
p1
Vhttp://www.bnpparibas-ip.fr/investisseur-prive-particulier/fundsheet/actions-europeennes/bnp-paribas-easy-equity-low-vol-europe-ucits-etf-c-lu1377381717
p2
sVlu0012182712
p3
Vhttp://www.bnpparibas-ip.fr/investisseur-prive-particulier/fundsheet/autres-fonds-taux-pays-developpes/parvest-bond-jpy-classic-c-lu0012182712
p4
sVfr0010714238
p5
Vhttp://www.bnpparibas-ip.fr/investisseur-prive-particulier/fundsheet/actions-internationales/topix-theam-easy-ucits-etf-eur-c-fr0010713610
p6
sVlu0325598323
p7
Vhttp://www.bnpparibas-ip.fr/investisseur-prive-particulier/fundsheet/obligations-internationales/parvest-enhanced-cash-6-months-classic-c-lu0325598166
p8
sVfr0010722272
p9
Vhttp://www.bnpparibas-ip.fr/investisseur-prive-particulier/fundsheet/actions-internationales/theam-euro-long-dividends-a-eur-c-fr0010722272
p10
sVlu0212187404
p11
Vhttp://www.bnpparibas-ip.fr/investisseur-prive-particulier/fundsheet/actions-europeennes/parvest-sustainable-equity-europe-classic-c-lu0212189012
p12
sVfr0010997825
p13
Vhttp://www.bnpparibas-ip.fr/investisseur-prive-particulier/fundsheet/diversifie-monde/fundquest-optimal-selection-classic-c-fr0010997825
p14
sVlu0172351255
p15
Vhttp://www.bnpparibas-ip.fr/investisseur-prive-particulier/fundsheet/obligations-internationales/bnp-paribas-l1-bond-euro-premium-classic-c-lu0172350877
p16
sVlu0531558558
p17
Vhttp://www.bnpparibas-ip.fr/investisseur-prive-particulier/fundsheet/obligations-internationales/bnp-paribas-l1-bond-europe-plus-classic-c-lu0010000809
p18
sVlu0823416333
p19
Vhttp://www.bnpparibas-ip.fr/investisseur-prive-particulier/fundsheet/actions-internationales/parvest-equity-world-finance-classic-c-lu0823415871
p20
sVfr0012098499
p21
Vhttp://www.bnpparibas-ip.fr/investisseur-prive-particulier/fundsheet/actions-emergentes/cardif-bnpp-ip-equity-frontier-markets-classic-c-fr0012098499
p22
sVlu0283511433
p23
Vhttp://www.bnpparibas-ip.fr/investisseur-prive-particulier/fundsheet/immobilier-europeen/parvest-real-estate-securities-europe-classic-c-lu0283511359
p24
sVfr0011362102
p25
Vhttp://www.bnpparibas-ip.fr/investisseur-prive-particulier/fundsheet/marche-monetaire-usd/bnp-paribas-deposit-usd-classic-c-fr0011362102
p26
sVlu0203243844
p27
Vhttp://www.bnpparibas-ip.fr/investisseur-prive-particulier/fundsheet/matieres-premieres/s-p-gsci-energy-metals-capped-component-35-20-theam-easy-ucits-etf-a-usd-c-lu0203243844
p28
sVfr0007016449
p29
Vhttp://www.bnpparibas-ip.fr/investisseur-prive-particulier/fundsheet/actions-internationales/cpi-performance-classique-c-fr0007016449
p30
sVlu0823443733
p31
Vhttp://www.bnpparibas-ip.fr/investisseur-prive-particulier/fundsheet/immobilier-monde/parvest-real-estate-securities-pacific-classic-c-lu0823443220
p32
sVfr0011355528
p33
Vhttp://www.bnpparibas-ip.fr/investisseur-prive-particulier/fundsheet/actions-americaines/bnp-paribas-indice-amerique-du-nord-classic-c-fr0011355528
p34
sVlu1165136174
p35
Vhttp://www.bnpparibas-ip.fr/investisseur-prive-particulier/fundsheet/actions-internationales/parvest-human-development-classic-c-lu1165136174
p36
sVlu0270761140
p37
Vhttp://www.bnpparibas-ip.fr/investisseur-prive-particulier/fundsheet/actions-europeennes/bnp-paribas-l1-equity-netherlands-classic-c-lu0043962355
p38
sVlu0194437363
p39
Vhttp://www.bnpparibas-ip.fr/investisseur-prive-particulier/fundsheet/obligations-americaines/parvest-bond-usa-high-yield-classic-c-lu0111549480
p40
sVlu0823438816
p41
Vhttp://www.bnpparibas-ip.fr/investisseur-prive-particulier/fundsheet/actions-internationales/parvest-green-tigers-classic-c-lu0823437925
p42
sVfr0007085436
p43
Vhttp://www.bnpparibas-ip.fr/investisseur-prive-particulier/fundsheet/portefeuilles-diversifies-europe/camgestion-club-patrimoine-classic-c-fr0007085436
p44
sVlu0823379382
p45
Vhttp://www.bnpparibas-ip.fr/investisseur-prive-particulier/fundsheet/produits-de-taux-emergents/parvest-bond-asia-ex-japan-classic-eur-c-lu0823378905
p46
sVlu0823410997
p47
Vhttp://www.bnpparibas-ip.fr/investisseur-prive-particulier/fundsheet/actions-americaines/parvest-equity-usa-small-cap-classic-eur-c-lu0823410724
p48
sVlu1165137578
p49
Vhttp://www.bnpparibas-ip.fr/investisseur-prive-particulier/fundsheet/actions-internationales/parvest-smart-food-classic-c-lu1165137149
p50
sVlu0086913042
p51
Vhttp://www.bnpparibas-ip.fr/investisseur-prive-particulier/fundsheet/obligations-convertibles-europeennes/parvest-convertible-bond-europe-classic-c-lu0086913042
p52
sVlu0212177199
p53
Vhttp://www.bnpparibas-ip.fr/investisseur-prive-particulier/fundsheet/obligations-europeennes/parvest-bond-euro-short-term-classic-c-lu0212175227
p54
sVlu1104108326
p55
Vhttp://www.bnpparibas-ip.fr/investisseur-prive-particulier/fundsheet/obligations-internationales/parvest-bond-world-income-classic-c-lu1104108243
p56
sVlu0283511359
p57
g24
sVlu0823381875
p58
Vhttp://www.bnpparibas-ip.fr/investisseur-prive-particulier/fundsheet/obligations-europeennes/parvest-bond-euro-long-term-classic-c-lu0823381875
p59
sVfr0010478727
p60
Vhttp://www.bnpparibas-ip.fr/investisseur-prive-particulier/fundsheet/obligations-internationales/bnp-paribas-dynamique-6-mois-classic-c-fr0007035365
p61
sVfr0012538122
p62
Vhttp://www.bnpparibas-ip.fr/investisseur-prive-particulier/fundsheet/actions-europeennes/bnp-paribas-strategie-privee-actions-europe-classic-c-fr0012538122
p63
sVlu0930019665
p64
Vhttp://www.bnpparibas-ip.fr/investisseur-prive-particulier/fundsheet/produits-structures/bnp-paribas-plan-easy-future-2026-classic-c-lu0930019582
p65
sVfr0007045919
p66
Vhttp://www.bnpparibas-ip.fr/investisseur-prive-particulier/fundsheet/diversifie-monde/gestion-moderate-classic-c-fr0007045919
p67
sVlu0111482989
p68
Vhttp://www.bnpparibas-ip.fr/investisseur-prive-particulier/fundsheet/autres-fonds-actions-pays-developpes/parvest-equity-australia-classic-eur-c-lu0251810007
p69
sVlu0823390355
p70
Vhttp://www.bnpparibas-ip.fr/investisseur-prive-particulier/fundsheet/produits-de-taux-emergents/parvest-bond-best-selection-world-emerging-classic-c-lu0823389852
p71
sVfr0010146837
p72
Vhttp://www.bnpparibas-ip.fr/investisseur-prive-particulier/fundsheet/diversifie-monde/bnp-paribas-retraite-responsable-5-p-c-fr0010146837
p73
sVlu0265293521
p74
Vhttp://www.bnpparibas-ip.fr/investisseur-prive-particulier/fundsheet/actions-emergentes/parvest-equity-turkey-classic-c-lu0265293521
p75
sVfr0007453477
p76
Vhttp://www.bnpparibas-ip.fr/investisseur-prive-particulier/fundsheet/diversifie-monde/rentabilite-mobiliere-classique-c-fr0007453477
p77
sVlu0012182126
p78
Vhttp://www.bnpparibas-ip.fr/investisseur-prive-particulier/fundsheet/obligations-americaines/parvest-bond-usd-short-duration-classic-c-lu0012182399
p79
sVfr0010948745
p80
Vhttp://www.bnpparibas-ip.fr/investisseur-prive-particulier/fundsheet/produits-structures/everglades-pea-classic-c-fr0010948745
p81
sVfr0010093872
p82
Vhttp://www.bnpparibas-ip.fr/investisseur-prive-particulier/fundsheet/obligations-europeennes/bnp-paribas-obli-revenus-classic-h-fr0010093872
p83
sVlu0925123043
p84
Vhttp://www.bnpparibas-ip.fr/investisseur-prive-particulier/fundsheet/actions-internationales/parvest-equity-world-emerging-low-volatility-classic-eur-c-lu0925123043
p85
sVlu0406802339
p86
Vhttp://www.bnpparibas-ip.fr/investisseur-prive-particulier/fundsheet/actions-internationales/parvest-climate-impact-classic-c-lu0406802339
p87
sVlu0823380125
p88
g46
sVlu1056593772
p89
Vhttp://www.bnpparibas-ip.fr/investisseur-prive-particulier/fundsheet/actions-internationales/bnp-paribas-l1-equity-world-guru-classic-eur-c-lu1056593699
p90
sVlu0325599644
p91
g8
sVfr0011653781
p92
Vhttp://www.bnpparibas-ip.fr/investisseur-prive-particulier/fundsheet/produits-structures/isis-europe-smallcap-2020-classic-c-fr0011653781
p93
sVlu0251280102
p94
Vhttp://www.bnpparibas-ip.fr/investisseur-prive-particulier/fundsheet/produits-de-taux-emergents/bnp-paribas-l1-bond-world-emerging-local-classic-c-lu0907251499
p95
sVlu0823430672
p96
Vhttp://www.bnpparibas-ip.fr/investisseur-prive-particulier/fundsheet/actions-emergentes/parvest-equity-indonesia-classic-eur-c-lu0823429823
p97
sVlu1104113599
p98
Vhttp://www.bnpparibas-ip.fr/investisseur-prive-particulier/fundsheet/actions-emergentes/parvest-equity-world-emerging-small-cap-classic-c-lu1104113243
p99
sVlu1104114993
p100
Vhttp://www.bnpparibas-ip.fr/investisseur-prive-particulier/fundsheet/obligations-internationales/parvest-bond-absolute-return-v700-classic-c-lu1104114647
p101
sVlu1022403833
p102
Vhttp://www.bnpparibas-ip.fr/investisseur-prive-particulier/fundsheet/obligations-europeennes/parvest-covered-bond-euro-classic-c-lu1022403676
p103
sVfr0011585553
p104
Vhttp://www.bnpparibas-ip.fr/investisseur-prive-particulier/fundsheet/obligations-internationales/bnp-paribas-obliselect-global-high-yield-2019-classic-c-fr0011585546
p105
sVfr0012649283
p106
Vhttp://www.bnpparibas-ip.fr/investisseur-prive-particulier/fundsheet/produits-structures/athena-semi-airbag-aout-2023-classic-c-fr0012649283
p107
sVlu0823443220
p108
g32
sVfr0011011261
p109
Vhttp://www.bnpparibas-ip.fr/investisseur-prive-particulier/fundsheet/actions-europeennes/bnp-paribas-actions-pme-classic-c-fr0011693100
p110
sVlu1056593699
p111
g90
sVlu0011928255
p112
Vhttp://www.bnpparibas-ip.fr/investisseur-prive-particulier/fundsheet/obligations-internationales/bnp-paribas-l1-bond-world-plus-classic-c-lu0011928255
p113
sVfr0011046739
p114
Vhttp://www.bnpparibas-ip.fr/investisseur-prive-particulier/fundsheet/obligations-europeennes/bnp-paribas-obli-responsable-classic-c-fr0010076893
p115
sVlu0823424352
p116
Vhttp://www.bnpparibas-ip.fr/investisseur-prive-particulier/fundsheet/actions-internationales/parvest-equity-world-telecom-classic-c-lu0823422810
p117
sVlu0423950053
p118
Vhttp://www.bnpparibas-ip.fr/investisseur-prive-particulier/fundsheet/marche-monetaire-eur/bnp-paribas-insticash-money-3m-eur-classic-c-lu0423950210
p119
sVlu0956005226
p120
Vhttp://www.bnpparibas-ip.fr/investisseur-prive-particulier/fundsheet/actions-internationales/parvest-equity-best-selection-world-classic-c-lu0956005226
p121
sVlu1165136687
p122
g36
sVlu1165137222
p123
g50
sVfr0012558815
p124
Vhttp://www.bnpparibas-ip.fr/investisseur-prive-particulier/fundsheet/actions-internationales/bnp-paribas-actions-emergentes-classic-c-fr0012558815
p125
sVfr0011034586
p126
Vhttp://www.bnpparibas-ip.fr/investisseur-prive-particulier/fundsheet/produits-structures/bnp-paribas-gestion-active-classic-c-fr0011034586
p127
sVlu1049888735
p128
Vhttp://www.bnpparibas-ip.fr/investisseur-prive-particulier/fundsheet/actions-americaines/theam-quant-equity-us-guru-c-eur-c-lu1049888735
p129
sVfr0000174526
p130
Vhttp://www.bnpparibas-ip.fr/investisseur-prive-particulier/fundsheet/diversifie-monde/bnp-paribas-retraite-responsable-75-p-c-fr0010146894
p131
sVfr0011683655
p132
Vhttp://www.bnpparibas-ip.fr/investisseur-prive-particulier/fundsheet/produits-structures/bnp-paribas-thique-europe-2018-pea-classic-c-fr0011683655
p133
sVfr0010894824
p134
Vhttp://www.bnpparibas-ip.fr/investisseur-prive-particulier/fundsheet/obligations-europeennes/bnp-paribas-obli-pays-garantie-2018-classic-c-fr0010894824
p135
sVlu0111550736
p136
g40
sVfr0010670661
p137
Vhttp://www.bnpparibas-ip.fr/investisseur-prive-particulier/fundsheet/obligations-europeennes/cortal-consors-open-court-terme-classic-c-fr0010670653
p138
sVfr0010156216
p139
Vhttp://www.bnpparibas-ip.fr/investisseur-prive-particulier/fundsheet/immobilier-monde/bnp-paribas-immobilier-responsable-classic-c-fr0010156216
p140
sVlu0154361405
p141
Vhttp://www.bnpparibas-ip.fr/investisseur-prive-particulier/fundsheet/produits-structures/parvest-step-90-euro-classic-c-lu0154361405
p142
sVlu1235110779
p143
Vhttp://www.bnpparibas-ip.fr/investisseur-prive-particulier/fundsheet/actions-emergentes/theam-quant-equity-asia-guru-c-c-lu1235110779
p144
sVlu0823417901
p145
Vhttp://www.bnpparibas-ip.fr/investisseur-prive-particulier/fundsheet/actions-internationales/parvest-equity-world-low-volatility-classic-c-lu0823417810
p146
sVlu0823391676
p147
Vhttp://www.bnpparibas-ip.fr/investisseur-prive-particulier/fundsheet/obligations-internationales/parvest-bond-world-classic-c-lu0823391676
p148
sVfr0011594134
p149
Vhttp://www.bnpparibas-ip.fr/investisseur-prive-particulier/fundsheet/diversifie-monde/bnp-paribas-floreal-70-classic-c-fr0011594134
p150
sVlu0823432611
p151
Vhttp://www.bnpparibas-ip.fr/investisseur-prive-particulier/fundsheet/actions-emergentes/parvest-equity-russia-classic-c-lu0823431720
p152
sVfr0010077354
p153
Vhttp://www.bnpparibas-ip.fr/investisseur-prive-particulier/fundsheet/obligations-europeennes/bnp-paribas-obli-inflation-classic-c-fr0010077354
p154
sVfr0010112615
p155
Vhttp://www.bnpparibas-ip.fr/investisseur-prive-particulier/fundsheet/obligations-europeennes/bnp-paribas-obli-moyen-terme-classic-c-fr0010112615
p156
sVfr0011617737
p157
Vhttp://www.bnpparibas-ip.fr/investisseur-prive-particulier/fundsheet/obligations-europeennes/bnp-paribas-advanced-treasury-classic-c-fr0011617729
p158
sVlu1291107594
p159
Vhttp://www.bnpparibas-ip.fr/investisseur-prive-particulier/fundsheet/actions-europeennes/bnp-paribas-easy-msci-uk-ex-controversial-weapons-track-classic-c-lu1291107248
p160
sVlu1104113672
p161
g99
sVlu0282880003
p162
Vhttp://www.bnpparibas-ip.fr/investisseur-prive-particulier/fundsheet/actions-emergentes/parvest-equity-russia-opportunities-classic-eur-c-lu0282880003
p163
sVlu0823412266
p164
Vhttp://www.bnpparibas-ip.fr/investisseur-prive-particulier/fundsheet/actions-internationales/parvest-equity-world-consumer-durables-classic-c-lu0823411706
p165
sVlu0159092427
p166
Vhttp://www.bnpparibas-ip.fr/investisseur-prive-particulier/fundsheet/diversifie-monde/bnp-paribas-l1-diversified-world-growth-classic-c-lu0132152439
p167
sVlu0823422810
p168
g117
sVlu1104108839
p169
g56
sVfr0010146787
p170
Vhttp://www.bnpparibas-ip.fr/investisseur-prive-particulier/fundsheet/diversifie-monde/bnp-paribas-retraite-responsable-2019-2021-p-c-fr0010146787
p171
sVlu0107069717
p172
g4
sVlu0823389183
p173
Vhttp://www.bnpparibas-ip.fr/investisseur-prive-particulier/fundsheet/obligations-internationales/parvest-bond-world-high-yield-classic-c-lu0823388615
p174
sVbe0146933750
p175
Vhttp://www.bnpparibas-ip.fr/investisseur-prive-particulier/fundsheet/diversifie-monde/bnp-paribas-b-strategy-global-conservative-classic-d-be0146933750
p176
sVlu1163234195
p177
Vhttp://www.bnpparibas-ip.fr/investisseur-prive-particulier/fundsheet/actions-emergentes/bnp-paribas-flexi-i-csi-300-index-classic-eur-c-lu1163234278
p178
sVfr0011550672
p179
Vhttp://www.bnpparibas-ip.fr/investisseur-prive-particulier/fundsheet/actions-europeennes/bnp-paribas-easy-stoxx-europe-600-ucits-etf-classique-c-fr0011550193
p180
sVlu0823425839
p181
Vhttp://www.bnpparibas-ip.fr/investisseur-prive-particulier/fundsheet/actions-emergentes/parvest-equity-china-classic-eur-c-lu0823425839
p182
sVlu0111451596
p183
Vhttp://www.bnpparibas-ip.fr/investisseur-prive-particulier/fundsheet/actions-europeennes/parvest-equity-europe-mid-cap-classic-c-lu0066794719
p184
sVlu0848152095
p185
Vhttp://www.bnpparibas-ip.fr/investisseur-prive-particulier/fundsheet/diversifie-monde/bnp-paribas-quam-fund-medium-vol-classic-c-lu0236673397
p186
sVlu0159056620
p187
g18
sVlu1270632737
p188
Vhttp://www.bnpparibas-ip.fr/investisseur-prive-particulier/fundsheet/rendement-absolu/parvest-cross-asset-absolute-return-classic-c-lu1270631846
p189
sVfr0011670082
p190
Vhttp://www.bnpparibas-ip.fr/investisseur-prive-particulier/fundsheet/actions-internationales/theam-quant-equity-europe-core-a-eur-c-fr0011670082
p191
sVlu0406802685
p192
g87
sVlu1056594580
p193
Vhttp://www.bnpparibas-ip.fr/investisseur-prive-particulier/fundsheet/diversifie-monde/bnp-paribas-l1-multi-asset-income-classic-c-lu1056594234
p194
sVlu0283407293
p195
g24
sVfr0010302398
p196
Vhttp://www.bnpparibas-ip.fr/investisseur-prive-particulier/fundsheet/actions-europeennes/bnp-paribas-actions-europe-responsable-classic-c-fr0010302398
p197
sVlu0283417250
p198
Vhttp://www.bnpparibas-ip.fr/investisseur-prive-particulier/fundsheet/actions-emergentes/parvest-equity-latin-america-classic-eur-c-lu0283417250
p199
sVfr0010732701
p200
Vhttp://www.bnpparibas-ip.fr/investisseur-prive-particulier/fundsheet/portefeuilles-diversifies-europe/camgestion-europe-equilibre-classique-c-fr0010732701
p201
sVlu0823394852
p202
Vhttp://www.bnpparibas-ip.fr/investisseur-prive-particulier/fundsheet/obligations-convertibles-internationales/parvest-convertible-bond-world-classic-rh-eur-c-lu0823394852
p203
sVlu1163234278
p204
g178
sVlu0823400501
p205
Vhttp://www.bnpparibas-ip.fr/investisseur-prive-particulier/fundsheet/actions-europeennes/parvest-equity-best-selection-europe-classic-c-lu0823399810
p206
sVlu0251810007
p207
g69
sVfr0010633818
p208
Vhttp://www.bnpparibas-ip.fr/investisseur-prive-particulier/fundsheet/obligations-europeennes/camgestion-capi-oblig-classique-c-fr0010633818
p209
sVfr0010106831
p210
Vhttp://www.bnpparibas-ip.fr/investisseur-prive-particulier/fundsheet/actions-europeennes/bnp-paribas-indice-france-classic-c-fr0010106831
p211
sVfr0011296383
p212
Vhttp://www.bnpparibas-ip.fr/investisseur-prive-particulier/fundsheet/obligations-internationales/bnp-paribas-obliselect-global-high-yield-2017-classic-c-fr0011296383
p213
sVlu1049891010
p214
Vhttp://www.bnpparibas-ip.fr/investisseur-prive-particulier/fundsheet/rendement-absolu/theam-quant-equity-guru-long-short-c-c-lu1049891010
p215
sVfr0010116343
p216
Vhttp://www.bnpparibas-ip.fr/investisseur-prive-particulier/fundsheet/marche-monetaire-eur/bnp-paribas-tresorerie-classic-c-fr0010116343
p217
sVlu1254145326
p218
Vhttp://www.bnpparibas-ip.fr/investisseur-prive-particulier/fundsheet/actions-americaines/bnp-paribas-l1-equity-usa-core-classic-eur-c-lu0531774767
p219
sVlu0930018931
p220
Vhttp://www.bnpparibas-ip.fr/investisseur-prive-particulier/fundsheet/produits-structures/bnp-paribas-plan-easy-future-2021-classic-c-lu0930018931
p221
sVlu0111491626
p222
Vhttp://www.bnpparibas-ip.fr/investisseur-prive-particulier/fundsheet/actions-europeennes/parvest-sustainable-equity-high-dividend-europe-classic-c-lu0111491469
p223
sVlu1377382012
p224
Vhttp://www.bnpparibas-ip.fr/investisseur-prive-particulier/fundsheet/actions-europeennes/bnp-paribas-easy-equity-momentum-europe-ucits-etf-c-lu1377382012
p225
sVlu1291092119
p226
Vhttp://www.bnpparibas-ip.fr/investisseur-prive-particulier/fundsheet/obligations-internationales/bnp-paribas-easy-jpm-embi-global-diversified-composite-track-privilege-h-eur-c-lu1291092119
p227
sVfr0007006929
p228
Vhttp://www.bnpparibas-ip.fr/investisseur-prive-particulier/fundsheet/actions-europeennes/camgestion-active-100-classique-c-fr0007006929
p229
sVfr0011088475
p230
Vhttp://www.bnpparibas-ip.fr/investisseur-prive-particulier/fundsheet/obligations-internationales/bnp-paribas-double-garantie-decembre-2018-classic-c-fr0011088475
p231
sVlu0823415012
p232
Vhttp://www.bnpparibas-ip.fr/investisseur-prive-particulier/fundsheet/actions-internationales/parvest-equity-world-energy-classic-c-lu0823414635
p233
sVlu0225846186
p234
Vhttp://www.bnpparibas-ip.fr/investisseur-prive-particulier/fundsheet/actions-emergentes/parvest-equity-south-korea-classic-eur-c-lu0282880698
p235
sVfr0012538098
p236
Vhttp://www.bnpparibas-ip.fr/investisseur-prive-particulier/fundsheet/actions-europeennes/bnp-paribas-strategie-privee-isr-actions-europe-classic-c-fr0012538098
p237
sVfr0012716710
p238
Vhttp://www.bnpparibas-ip.fr/investisseur-prive-particulier/fundsheet/produits-structures/eco-developpement-protege-90-classic-c-fr0012716710
p239
sVlu1104106973
p240
Vhttp://www.bnpparibas-ip.fr/investisseur-prive-particulier/fundsheet/produits-de-taux-emergents/parvest-bond-rmb-classic-c-lu1104106973
p241
sVlu0823386320
p242
Vhttp://www.bnpparibas-ip.fr/investisseur-prive-particulier/fundsheet/produits-de-taux-emergents/parvest-bond-world-emerging-local-classic-eur-c-lu0823385272
p243
sVlu0925122821
p244
g85
sVfr0007068085
p245
Vhttp://www.bnpparibas-ip.fr/investisseur-prive-particulier/fundsheet/actions-europeennes/bnp-paribas-easy-stoxx-europe-600-oil-gas-ucits-etf-classique-c-fr0007068085
p246
sVlu0662594398
p247
Vhttp://www.bnpparibas-ip.fr/investisseur-prive-particulier/fundsheet/produits-de-taux-emergents/parvest-bond-world-emerging-classic-eur-c-lu0282274348
p248
sVlu0823407779
p249
Vhttp://www.bnpparibas-ip.fr/investisseur-prive-particulier/fundsheet/actions-americaines/parvest-equity-high-dividend-usa-classic-eur-c-lu0823407779
p250
sVlu1049888578
p251
g129
sVlu0265267954
p252
Vhttp://www.bnpparibas-ip.fr/investisseur-prive-particulier/fundsheet/actions-emergentes/parvest-equity-brazil-classic-eur-c-lu0281906387
p253
sVlu0347712191
p254
Vhttp://www.bnpparibas-ip.fr/investisseur-prive-particulier/fundsheet/actions-internationales/parvest-global-environment-classic-c-lu0347711466
p255
sVlu0249333690
p256
Vhttp://www.bnpparibas-ip.fr/investisseur-prive-particulier/fundsheet/obligations-internationales/parvest-bond-world-inflation-linked-classic-c-lu0249332619
p257
sVlu0325598166
p258
g8
sVlu0823385603
p259
g243
sVlu0823450787
p260
Vhttp://www.bnpparibas-ip.fr/investisseur-prive-particulier/fundsheet/matieres-premieres/parvest-commodities-classic-eur-c-lu0823449185
p261
sVfr0012443158
p262
Vhttp://www.bnpparibas-ip.fr/investisseur-prive-particulier/fundsheet/diversifie-monde/bnp-paribas-linus-flexi-world-a-c-fr0012443158
p263
sVlu0249332619
p264
g257
sVlu0925122235
p265
Vhttp://www.bnpparibas-ip.fr/investisseur-prive-particulier/fundsheet/autres-fonds-actions-pays-developpes/parvest-equity-japan-small-cap-classic-eur-c-lu0251807987
p266
sVlu1270632067
p267
g189
sVfr0013127149
p268
Vhttp://www.bnpparibas-ip.fr/investisseur-prive-particulier/fundsheet/portefeuilles-diversifies-europe/bnpp-european-multi-asset-moderate-a-c-fr0013127149
p269
sVlu1022398496
p270
Vhttp://www.bnpparibas-ip.fr/investisseur-prive-particulier/fundsheet/actions-internationales/parvest-equity-high-dividend-world-classic-c-lu1022398496
p271
sVlu1022405028
p272
Vhttp://www.bnpparibas-ip.fr/investisseur-prive-particulier/fundsheet/obligations-internationales/parvest-flexible-bond-euro-classic-c-lu1022404724
p273
sVlu0823423388
p274
g117
sVfr0010076893
p275
g115
sVfr0013057130
p276
Vhttp://www.bnpparibas-ip.fr/investisseur-prive-particulier/fundsheet/diversifie-monde/camgestion-g-n-ration-2031-35-classic-c-fr0013057130
p277
sVlu0925123803
p278
g101
sVlu0823409635
p279
Vhttp://www.bnpparibas-ip.fr/investisseur-prive-particulier/fundsheet/actions-emergentes/parvest-equity-asia-pacific-ex-japan-classic-eur-c-lu0823409718
p280
sVlu1022404138
p281
g103
sVfr0011314293
p282
Vhttp://www.bnpparibas-ip.fr/investisseur-prive-particulier/fundsheet/obligations-europeennes/bnp-paribas-obliselect-nordic-hy-2019-hedged-classic-c-fr0011314335
p283
sVlu0823433858
p284
g75
sVlu0823399067
p285
Vhttp://www.bnpparibas-ip.fr/investisseur-prive-particulier/fundsheet/actions-europeennes/parvest-equity-best-selection-europe-ex-uk-classic-c-lu0823398416
p286
sVfr0007471198
p287
Vhttp://www.bnpparibas-ip.fr/investisseur-prive-particulier/fundsheet/diversifie-monde/actions-monde-bnpp-ip-classique-h-fr0007471198
p288
sVlu0823421689
p289
Vhttp://www.bnpparibas-ip.fr/investisseur-prive-particulier/fundsheet/actions-internationales/parvest-equity-world-technology-classic-c-lu0823421689
p290
sVlu0083137926
p291
Vhttp://www.bnpparibas-ip.fr/investisseur-prive-particulier/fundsheet/marche-monetaire-eur/parvest-money-market-euro-classic-c-lu0083138064
p292
sVlu0823404081
p293
Vhttp://www.bnpparibas-ip.fr/investisseur-prive-particulier/fundsheet/actions-emergentes/parvest-equity-europe-emerging-classic-c-lu0823403356
p294
sVlu1104425308
p295
Vhttp://www.bnpparibas-ip.fr/investisseur-prive-particulier/fundsheet/actions-europeennes/parvest-equity-europe-growth-classic-c-lu0823404248
p296
sVlu1291108485
p297
Vhttp://www.bnpparibas-ip.fr/investisseur-prive-particulier/fundsheet/actions-internationales/bnp-paribas-easy-msci-world-ex-controversial-weapons-track-privilege-h-eur-c-lu1291108998
p298
sVlu1120433575
p299
Vhttp://www.bnpparibas-ip.fr/investisseur-prive-particulier/fundsheet/actions-internationales/theam-quant-equity-us-covered-c-eur-c-lu1120433732
p300
sVlu0347711466
p301
g255
sVlu0111466271
p302
Vhttp://www.bnpparibas-ip.fr/investisseur-prive-particulier/fundsheet/obligations-convertibles-emergentes/parvest-convertible-bond-asia-classic-eur-c-lu0281885953
p303
sVfr0010409946
p304
Vhttp://www.bnpparibas-ip.fr/investisseur-prive-particulier/fundsheet/obligations-europeennes/fundquest-bond-opportunities-classic-c-fr0010409946
p305
sVlu0930019236
p306
Vhttp://www.bnpparibas-ip.fr/investisseur-prive-particulier/fundsheet/produits-structures/bnp-paribas-plan-easy-future-2023-classic-c-lu0930019236
p307
sVfr0010294959
p308
Vhttp://www.bnpparibas-ip.fr/investisseur-prive-particulier/fundsheet/autres-marches-monetaires/bnp-paribas-structure-court-terme-classic-c-fr0010609099
p309
sVlu0823414718
p310
g233
sVfr0011318039
p311
Vhttp://www.bnpparibas-ip.fr/investisseur-prive-particulier/fundsheet/obligations-europeennes/bnp-paribas-obliselect-nordic-hy-2019-classic-c-fr0011318039
p312
sVlu1270631846
p313
g189
sVlu0930019582
p314
g65
sVlu0823387054
p315
g243
sVlu0030437460
p316
g113
sVlu0107061904
p317
g199
sVlu0823449425
p318
g261
sVfr0011681956
p319
Vhttp://www.bnpparibas-ip.fr/investisseur-prive-particulier/fundsheet/produits-structures/bnp-paribas-eco-developpement-2021-classic-c-fr0011681956
p320
sVfr0013176369
p321
Vhttp://www.bnpparibas-ip.fr/investisseur-prive-particulier/fundsheet/obligations-europeennes/bnp-paribas-sustainable-bond-euro-short-term-classic-c-fr0013176336
p322
sVfr0011249390
p323
Vhttp://www.bnpparibas-ip.fr/investisseur-prive-particulier/fundsheet/produits-structures/bnp-paribas-gestion-active-octobre-2018-classic-c-fr0011249390
p324
sVlu0783285330
p325
Vhttp://www.bnpparibas-ip.fr/investisseur-prive-particulier/fundsheet/marche-monetaire-usd/bnp-paribas-insticash-usd-classic-c-lu0167238863
p326
sVlu0823449268
p327
g261
sVfr0000285629
p328
Vhttp://www.bnpparibas-ip.fr/investisseur-prive-particulier/fundsheet/obligations-convertibles-europeennes/camgestion-convertibles-europe-classic-h-fr0000285629
p329
sVfr0011908102
p330
Vhttp://www.bnpparibas-ip.fr/investisseur-prive-particulier/fundsheet/obligations-europeennes/bnp-paribas-euro-flexi-bond-income-a-h-fr0011908078
p331
sVlu1481201702
p332
Vhttp://www.bnpparibas-ip.fr/investisseur-prive-particulier/fundsheet/actions-europeennes/bnp-paribas-easy-equity-value-europe-ucits-etf-c-lu1377382285
p333
sVlu0957145369
p334
g119
sVlu0531975158
p335
g16
sVlu0012181235
p336
Vhttp://www.bnpparibas-ip.fr/investisseur-prive-particulier/fundsheet/actions-americaines/parvest-equity-usa-classic-eur-c-lu0251804968
p337
sVlu0823401574
p338
Vhttp://www.bnpparibas-ip.fr/investisseur-prive-particulier/fundsheet/actions-europeennes/parvest-equity-best-selection-euro-classic-c-lu0823401574
p339
sVlu1056593426
p340
g90
sVfr0010670653
p341
g138
sVlu1245560070
p342
Vhttp://www.bnpparibas-ip.fr/investisseur-prive-particulier/fundsheet/actions-emergentes/theam-quant-equity-emerging-guru-c-eur-c-lu1120436321
p343
sVlu0823389423
p344
g71
sVfr0012739431
p345
Vhttp://www.bnpparibas-ip.fr/investisseur-prive-particulier/fundsheet/actions-europeennes/bnp-paribas-easy-euro-stoxx-50-ucits-etf-eur-c-c-fr0012739431
p346
sVlu0111445861
p347
Vhttp://www.bnpparibas-ip.fr/investisseur-prive-particulier/fundsheet/autres-fonds-actions-pays-developpes/parvest-equity-japan-classic-eur-c-lu0251809090
p348
sVlu1291107248
p349
g160
sVlu1291098314
p350
Vhttp://www.bnpparibas-ip.fr/investisseur-prive-particulier/fundsheet/actions-emergentes/bnp-paribas-easy-msci-emerging-markets-sri-ucits-etf-c-lu1291098314
p351
sVfr0010609099
p352
g309
sVlu0177332573
p353
Vhttp://www.bnpparibas-ip.fr/investisseur-prive-particulier/fundsheet/actions-europeennes/parvest-equity-europe-value-classic-c-lu0177332227
p354
sVlu0167236909
p355
Vhttp://www.bnpparibas-ip.fr/investisseur-prive-particulier/fundsheet/marche-monetaire-gbp/bnp-paribas-insticash-gbp-classic-c-lu0167236651
p356
sVlu0086914446
p357
Vhttp://www.bnpparibas-ip.fr/investisseur-prive-particulier/fundsheet/obligations-europeennes/parvest-bond-euro-medium-term-classic-c-lu0086914362
p358
sVlu0950372911
p359
Vhttp://www.bnpparibas-ip.fr/investisseur-prive-particulier/fundsheet/actions-europeennes/parvest-equity-nordic-small-cap-classic-c-lu0950372838
p360
sVlu0245286777
p361
Vhttp://www.bnpparibas-ip.fr/investisseur-prive-particulier/fundsheet/actions-internationales/bnp-paribas-islamic-fund-equity-optimiser-classic-c-lu0245286777
p362
sVfr0011176841
p363
Vhttp://www.bnpparibas-ip.fr/investisseur-prive-particulier/fundsheet/autres-marches-monetaires/bnp-paribas-court-terme-assurance-classic-c-fr0011176841
p364
sVlu0828230770
p365
Vhttp://www.bnpparibas-ip.fr/investisseur-prive-particulier/fundsheet/obligations-europeennes/parvest-sustainable-bond-euro-classic-c-lu0828230697
p366
sVlu1291092978
p367
Vhttp://www.bnpparibas-ip.fr/investisseur-prive-particulier/fundsheet/obligations-internationales/bnp-paribas-easy-jpm-gbi-emu-track-privilege-c-lu1291092978
p368
sVfr0012553659
p369
Vhttp://www.bnpparibas-ip.fr/investisseur-prive-particulier/fundsheet/obligations-europeennes/camgestion-obliflexible-classic-h-fr0012553659
p370
sVlu1325793427
p371
Vhttp://www.bnpparibas-ip.fr/investisseur-prive-particulier/fundsheet/actions-internationales/parworld-equity-world-defi-classic-c-lu1325792700
p372
sVlu0823380398
p373
g46
sVfr0010115014
p374
g156
sVlu1291098827
p375
Vhttp://www.bnpparibas-ip.fr/investisseur-prive-particulier/fundsheet/actions-europeennes/bnp-paribas-easy-msci-emu-ex-controversial-weapons-track-privilege-c-lu1291098660
p376
sVfr0012686020
p377
Vhttp://www.bnpparibas-ip.fr/investisseur-prive-particulier/fundsheet/actions-internationales/fundquest-ethisworld-b-h-fr0012686046
p378
sVlu1022398652
p379
g271
sVlu0158838473
p380
Vhttp://www.bnpparibas-ip.fr/investisseur-prive-particulier/fundsheet/actions-europeennes/bnp-paribas-l1-equity-europe-classic-c-lu0010012721
p381
sVfr0007494166
p382
Vhttp://www.bnpparibas-ip.fr/investisseur-prive-particulier/fundsheet/obligations-europeennes/camgestion-oblicycle-inflation-classic-c-fr0007494166
p383
sVlu0111466198
p384
g52
sVfr0010712729
p385
Vhttp://www.bnpparibas-ip.fr/investisseur-prive-particulier/fundsheet/obligations-europeennes/camgestion-euroblig-classic-c-fr0010712729
p386
sVfr0010576777
p387
Vhttp://www.bnpparibas-ip.fr/investisseur-prive-particulier/fundsheet/marche-monetaire-eur/bami-tresorerie-classic-c-fr0010576777
p388
sVlu0907251499
p389
g95
sVlu0194438338
p390
g348
sVlu0010000809
p391
g18
sVlu0823426480
p392
g182
sVfr0010636456
p393
Vhttp://www.bnpparibas-ip.fr/investisseur-prive-particulier/fundsheet/rendement-absolu/bnp-paribas-multistrategies-actif-classique-c-fr0010636456
p394
sVfr0010716217
p395
Vhttp://www.bnpparibas-ip.fr/investisseur-prive-particulier/fundsheet/diversifie-monde/camgestion-g-n-ration-2021-25-classic-c-fr0010716217
p396
sVlu0823432454
p397
g152
sVlu1022403676
p398
g103
sVfr0007044706
p399
Vhttp://www.bnpparibas-ip.fr/investisseur-prive-particulier/fundsheet/actions-europeennes/cnp-assur-smid-cap-europe-classique-h-fr0007044706
p400
sVlu1481200217
p401
Vhttp://www.bnpparibas-ip.fr/investisseur-prive-particulier/fundsheet/obligations-internationales/bnp-paribas-easy-barclays-euro-government-inflation-linked-all-maturities-track-privilege-c-lu1291090766
p402
sVlu0190304740
p403
Vhttp://www.bnpparibas-ip.fr/investisseur-prive-particulier/fundsheet/obligations-europeennes/parvest-bond-euro-inflation-linked-classic-c-lu0190304583
p404
sVfr0007068051
p405
Vhttp://www.bnpparibas-ip.fr/investisseur-prive-particulier/fundsheet/actions-europeennes/bnp-paribas-easy-stoxx-europe-600-media-ucits-etf-classique-c-fr0007068051
p406
sVfr0000299620
p407
Vhttp://www.bnpparibas-ip.fr/investisseur-prive-particulier/fundsheet/marche-monetaire-eur/bnp-paribas-mone-etat-classic-c-fr0011279827
p408
sVlu0982365545
p409
Vhttp://www.bnpparibas-ip.fr/investisseur-prive-particulier/fundsheet/actions-europeennes/bnp-paribas-l1-equity-europe-low-volatility-classic-c-lu0982365545
p410
sVlu1150255971
p411
Vhttp://www.bnpparibas-ip.fr/investisseur-prive-particulier/fundsheet/obligations-internationales/bnp-paribas-islamic-fund-hilal-income-classic-c-lu1150255971
p412
sVfr0010146522
p413
Vhttp://www.bnpparibas-ip.fr/investisseur-prive-particulier/fundsheet/diversifie-monde/bnp-paribas-retraite-responsable-horizon-i-100-c-fr0010146522
p414
sVlu0823416762
p415
Vhttp://www.bnpparibas-ip.fr/investisseur-prive-particulier/fundsheet/actions-internationales/parvest-equity-world-health-care-classic-c-lu0823416762
p416
sVfr0010714279
p417
g6
sVlu0107086729
p418
g248
sVfr0011033950
p419
Vhttp://www.bnpparibas-ip.fr/investisseur-prive-particulier/fundsheet/obligations-internationales/bnp-paribas-double-garantie-juillet-2017-classic-c-fr0011033950
p420
sVlu0111550652
p421
g40
sVlu1049887414
p422
Vhttp://www.bnpparibas-ip.fr/investisseur-prive-particulier/fundsheet/actions-europeennes/theam-quant-equity-europe-income-defensive-c-c-lu1049885806
p423
sVlu0823431720
p424
g152
sVfr0011036110
p425
Vhttp://www.bnpparibas-ip.fr/investisseur-prive-particulier/fundsheet/actions-europeennes/camgestion-actions-euro-classic-c-fr0011036110
p426
sVlu0225845295
p427
g235
sVfr0010941617
p428
Vhttp://www.bnpparibas-ip.fr/investisseur-prive-particulier/fundsheet/produits-structures/yosemite-classic-c-fr0010941617
p429
sVlu0823425169
p430
Vhttp://www.bnpparibas-ip.fr/investisseur-prive-particulier/fundsheet/actions-internationales/parvest-equity-world-utilities-classic-c-lu0823424782
p431
sVlu0823392211
p432
g148
sVfr0010076638
p433
Vhttp://www.bnpparibas-ip.fr/investisseur-prive-particulier/fundsheet/diversifie-monde/bnp-paribas-floreal-30-classic-d-fr0010076638
p434
sVlu0212189012
p435
g12
sVfr0010376848
p436
Vhttp://www.bnpparibas-ip.fr/investisseur-prive-particulier/fundsheet/actions-europeennes/fundquest-europe-opportunities-classic-c-fr0010376848
p437
sVlu0823411458
p438
g48
sVlu0774754948
p439
Vhttp://www.bnpparibas-ip.fr/investisseur-prive-particulier/fundsheet/actions-internationales/parworld-quant-equity-world-guru-classic-c-lu0774754948
p440
sVlu0377066633
p441
Vhttp://www.bnpparibas-ip.fr/investisseur-prive-particulier/fundsheet/obligations-convertibles-europeennes/bnp-paribas-l1-convertible-bond-best-selection-europe-classic-c-lu0377063960
p442
sVlu0823449698
p443
g261
sVlu1291102108
p444
Vhttp://www.bnpparibas-ip.fr/investisseur-prive-particulier/fundsheet/actions-internationales/bnp-paribas-easy-msci-japan-ex-controversial-weapons-track-classic-capitalisationlu1291101985
p445
sVlu0930020911
p446
Vhttp://www.bnpparibas-ip.fr/investisseur-prive-particulier/fundsheet/produits-structures/bnp-paribas-plan-easy-future-2043-classic-c-lu0930020838
p447
sVlu0823401731
p448
g339
sVlu1022808221
p449
Vhttp://www.bnpparibas-ip.fr/investisseur-prive-particulier/fundsheet/autres-fonds-actions-pays-developpes/parvest-equity-usa-value-classic-eur-c-lu1022808148
p450
sVlu0823422497
p451
g290
sVlu1022399973
p452
g450
sVfr0010113639
p453
Vhttp://www.bnpparibas-ip.fr/investisseur-prive-particulier/fundsheet/obligations-europeennes/bnp-paribas-obli-ct-classic-c-fr0010112094
p454
sVlu0111463419
p455
g101
sVlu1484486805
p456
Vhttp://www.bnpparibas-ip.fr/investisseur-prive-particulier/fundsheet/rendement-absolu/parworld-lyra-classic-c-lu1484486714
p457
sVlu1022392531
p458
Vhttp://www.bnpparibas-ip.fr/investisseur-prive-particulier/fundsheet/obligations-europeennes/parvest-bond-euro-short-term-corporate-classic-c-lu1022392028
p459
sVlu0823398259
p460
Vhttp://www.bnpparibas-ip.fr/investisseur-prive-particulier/fundsheet/actions-emergentes/parvest-equity-best-selection-asia-ex-japan-classic-eur-c-lu0823397368
p461
sVlu1022394156
p462
Vhttp://www.bnpparibas-ip.fr/investisseur-prive-particulier/fundsheet/obligations-internationales/parvest-bond-world-high-yield-short-duration-classic-c-lu1022394156
p463
sVfr0010077362
p464
Vhttp://www.bnpparibas-ip.fr/investisseur-prive-particulier/fundsheet/actions-europeennes/bnp-paribas-europe-dividende-responsable-classic-c-fr0010077362
p465
sVlu0823381289
p466
Vhttp://www.bnpparibas-ip.fr/investisseur-prive-particulier/fundsheet/obligations-europeennes/parvest-bond-euro-high-yield-classic-c-lu0823380802
p467
sVfr0011236652
p468
Vhttp://www.bnpparibas-ip.fr/investisseur-prive-particulier/fundsheet/matieres-premieres/alpha-commodity-fund-a-usd-c-fr0011236652
p469
sVlu0823397954
p470
g461
sVfr0010772020
p471
Vhttp://www.bnpparibas-ip.fr/investisseur-prive-particulier/fundsheet/actions-europeennes/camgestion-deep-value-classic-c-fr0010772020
p472
sVlu0823433932
p473
g75
sVlu0823402036
p474
g339
sVfr0010230516
p475
Vhttp://www.bnpparibas-ip.fr/investisseur-prive-particulier/fundsheet/actions-europeennes/euro-stoxx-theam-easy-ucits-etf-classique-h-fr0010230516
p476
sVlu0281885953
p477
g303
sVlu0823406961
p478
Vhttp://www.bnpparibas-ip.fr/investisseur-prive-particulier/fundsheet/actions-emergentes/parvest-equity-high-dividend-pacific-classic-eur-c-lu0823406961
p479
sVlu1078737910
p480
Vhttp://www.bnpparibas-ip.fr/investisseur-prive-particulier/fundsheet/diversifie-monde/bnp-paribas-a-fund-european-multi-asset-income-classic-c-lu1078737910
p481
sVlu0095613583
p482
g303
sVfr0011550680
p483
Vhttp://www.bnpparibas-ip.fr/investisseur-prive-particulier/fundsheet/actions-americaines/bnp-paribas-easy-s-p-500-ucits-etf-c-eur-c-fr0011550185
p484
sVlu1049891101
p485
g215
sVlu0218129350
p486
Vhttp://www.bnpparibas-ip.fr/investisseur-prive-particulier/fundsheet/rendement-absolu/parworld-tracker-macro-opportunities-classic-c-lu0218129350
p487
sVfr0007006911
p488
Vhttp://www.bnpparibas-ip.fr/investisseur-prive-particulier/fundsheet/portefeuilles-diversifies-europe/camgestion-active-convictions-classic-c-fr0007006911
p489
sVlu0194436803
p490
g79
sVlu0823403943
p491
g294
sVfr0011182773
p492
Vhttp://www.bnpparibas-ip.fr/investisseur-prive-particulier/fundsheet/obligations-internationales/bnp-paribas-double-garantie-juillet-2020-classic-c-fr0011182773
p493
sVlu1056593343
p494
g90
sVlu1080341578
p495
Vhttp://www.bnpparibas-ip.fr/investisseur-prive-particulier/fundsheet/obligations-americaines/bnp-paribas-flexi-i-us-mortgage-classic-c-lu1080341065
p496
sVlu1235113286
p497
Vhttp://www.bnpparibas-ip.fr/investisseur-prive-particulier/fundsheet/actions-europeennes/theam-quant-equity-europe-income-protected-protected-i-c-lu1235113286
p498
sVfr0010028910
p499
Vhttp://www.bnpparibas-ip.fr/investisseur-prive-particulier/fundsheet/actions-europeennes/bnp-paribas-actions-europe-classic-c-fr0010028910
p500
sVfr0013157146
p501
Vhttp://www.bnpparibas-ip.fr/investisseur-prive-particulier/fundsheet/actions-europeennes/bnp-paribas-smallcap-euroland-classic-c-fr0010128587
p502
sVlu0132151464
p503
Vhttp://www.bnpparibas-ip.fr/investisseur-prive-particulier/fundsheet/diversifie-monde/bnp-paribas-l1-diversified-world-balanced-classic-c-lu0132151118
p504
sVfr0010077453
p505
Vhttp://www.bnpparibas-ip.fr/investisseur-prive-particulier/fundsheet/actions-europeennes/bnp-paribas-technologies-europe-classic-c-fr0010077453
p506
sVfr0013153236
p507
Vhttp://www.bnpparibas-ip.fr/investisseur-prive-particulier/fundsheet/obligations-europeennes/bnp-paribas-european-hy-2022-classic-capitalisationfr0013153228
p508
sVfr0010714246
p509
g6
sVlu0823413157
p510
Vhttp://www.bnpparibas-ip.fr/investisseur-prive-particulier/fundsheet/actions-emergentes/parvest-equity-world-emerging-classic-eur-c-lu0823413074
p511
sVfr0010077461
p512
Vhttp://www.bnpparibas-ip.fr/investisseur-prive-particulier/fundsheet/actions-europeennes/bnp-paribas-energie-europe-classic-c-fr0010077461
p513
sVlu0823424865
p514
g431
sVlu1120431280
p515
Vhttp://www.bnpparibas-ip.fr/investisseur-prive-particulier/fundsheet/actions-internationales/theam-quant-equity-euro-covered-c-c-lu1120431280
p516
sVlu1484486714
p517
g457
sVlu0823428189
p518
Vhttp://www.bnpparibas-ip.fr/investisseur-prive-particulier/fundsheet/actions-europeennes/parvest-equity-germany-classic-c-lu0823427611
p519
sVfr0010076547
p520
Vhttp://www.bnpparibas-ip.fr/investisseur-prive-particulier/fundsheet/diversifie-monde/bnp-paribas-selection-dynamique-monde-classic-c-fr0010076547
p521
sVlu0111548326
p522
Vhttp://www.bnpparibas-ip.fr/investisseur-prive-particulier/fundsheet/obligations-europeennes/parvest-bond-euro-government-classic-c-lu0111548326
p523
sVfr0007031877
p524
Vhttp://www.bnpparibas-ip.fr/investisseur-prive-particulier/fundsheet/marche-monetaire-eur/bnp-paribas-monetaire-assurance-classic-c-fr0007031877
p525
sVlu0823390868
p526
Vhttp://www.bnpparibas-ip.fr/investisseur-prive-particulier/fundsheet/obligations-europeennes/parvest-bond-euro-classic-c-lu0075938133
p527
sVlu1151728836
p528
Vhttp://www.bnpparibas-ip.fr/investisseur-prive-particulier/fundsheet/diversifie-monde/bnp-paribas-l1-patrimoine-classic-c-lu1151728596
p529
sVlu0823385512
p530
g243
sVlu0212189368
p531
g12
sVlu0823417497
p532
g416
sVfr0013063989
p533
Vhttp://www.bnpparibas-ip.fr/investisseur-prive-particulier/fundsheet/actions-europeennes/ds-patrimoine-e-c-fr0013063989
p534
sVfr0010104901
p535
Vhttp://www.bnpparibas-ip.fr/investisseur-prive-particulier/fundsheet/obligations-europeennes/bnp-paribas-obli-long-terme-classic-c-fr0010098210
p536
sVlu0823408074
p537
g250
sVfr0007018775
p538
Vhttp://www.bnpparibas-ip.fr/investisseur-prive-particulier/fundsheet/portefeuilles-diversifies-europe/objectif-actions-classique-d-fr0007018775
p539
sVlu0823403786
p540
g294
sVlu1049895607
p541
Vhttp://www.bnpparibas-ip.fr/investisseur-prive-particulier/fundsheet/matieres-premieres/theam-quant-raw-materials-enhanced-j-eur-h-c-lu1049895193
p542
sVlu1325792700
p543
g372
sVlu1049884155
p544
Vhttp://www.bnpparibas-ip.fr/investisseur-prive-particulier/fundsheet/actions-americaines/theam-quant-equity-us-income-defensive-c-eur-c-lu1049884312
p545
sVfr0010144550
p546
g140
sVfr0013127172
p547
g269
sVlu0265291152
p548
Vhttp://www.bnpparibas-ip.fr/investisseur-prive-particulier/fundsheet/obligations-internationales/parvest-sustainable-bond-world-corporate-classic-c-lu0282388437
p549
sVlu1291103171
p550
Vhttp://www.bnpparibas-ip.fr/investisseur-prive-particulier/fundsheet/actions-americaines/bnp-paribas-easy-msci-kld-400-social-track-privilege-c-lu1291103171
p551
sVlu0950373133
p552
g360
sVlu0102019857
p553
g101
sVlu1056591560
p554
Vhttp://www.bnpparibas-ip.fr/investisseur-prive-particulier/fundsheet/actions-internationales/bnp-paribas-l1-equity-world-quality-focus-classic-c-lu1056591487
p555
sVfr0011333780
p556
Vhttp://www.bnpparibas-ip.fr/investisseur-prive-particulier/fundsheet/actions-europeennes/bnp-paribas-best-selection-euro-classic-h-fr0011333780
p557
sVlu0823427884
p558
g519
sVlu0154246218
p559
Vhttp://www.bnpparibas-ip.fr/investisseur-prive-particulier/fundsheet/actions-americaines/parvest-equity-usa-mid-cap-classic-eur-c-lu0251807045
p560
sVfr0011870997
p561
Vhttp://www.bnpparibas-ip.fr/investisseur-prive-particulier/fundsheet/diversifie-monde/bnp-paribas-social-business-france-classic-c-fr0011870997
p562
sVlu0823398507
p563
g286
sVlu1291090766
p564
g402
sVlu1291109616
p565
Vhttp://www.bnpparibas-ip.fr/investisseur-prive-particulier/fundsheet/matieres-premieres/bnp-paribas-easy-s-p-gsci-energy-metals-capped-component-35-20-ucits-etf-eur-c-lu1291109616
p566
sVlu0167236651
p567
g356
sVfr0010261842
p568
Vhttp://www.bnpparibas-ip.fr/investisseur-prive-particulier/fundsheet/actions-internationales/bnp-paribas-utilities-classic-c-fr0010261842
p569
sVlu0907251655
p570
Vhttp://www.bnpparibas-ip.fr/investisseur-prive-particulier/fundsheet/actions-emergentes/bnp-paribas-l1-equity-world-emerging-classic-c-lu0907251655
p571
sVlu0823417141
p572
g416
sVlu0925120700
p573
g40
sVlu0172351099
p574
g16
sVlu1291093604
p575
Vhttp://www.bnpparibas-ip.fr/investisseur-prive-particulier/fundsheet/obligations-internationales/bnp-paribas-easy-jpm-gbi-global-ex-emu-hedged-eur-track-privilege-c-lu1291093604
p576
sVfr0010682690
p577
Vhttp://www.bnpparibas-ip.fr/investisseur-prive-particulier/fundsheet/obligations-europeennes/cortal-consors-open-rendement-classic-c-fr0010682690
p578
sVlu0930020598
p579
Vhttp://www.bnpparibas-ip.fr/investisseur-prive-particulier/fundsheet/produits-structures/bnp-paribas-plan-easy-future-2038-classic-c-lu0930020598
p580
sVlu1165136257
p581
g36
sVlu0823418388
p582
g146
sVlu0823417224
p583
g416
sVfr0012538130
p584
Vhttp://www.bnpparibas-ip.fr/investisseur-prive-particulier/fundsheet/actions-internationales/bnp-paribas-strategie-privee-isr-actions-internationales-classic-c-fr0012538130
p585
sVfr0010668145
p586
Vhttp://www.bnpparibas-ip.fr/investisseur-prive-particulier/fundsheet/actions-internationales/bnp-paribas-aqua-classic-c-fr0010668145
p587
sVlu0111549217
p588
g523
sVlu1104115453
p589
Vhttp://www.bnpparibas-ip.fr/investisseur-prive-particulier/fundsheet/diversifie-monde/parvest-flexible-multi-asset-classic-c-lu1104115453
p590
sVfr0013176351
p591
g322
sVlu0066794719
p592
g184
sVfr0010417857
p593
Vhttp://www.bnpparibas-ip.fr/investisseur-prive-particulier/fundsheet/hedge-fund/bnp-paribas-alternatif-p-c-fr0010417857
p594
sVlu0161743942
p595
Vhttp://www.bnpparibas-ip.fr/investisseur-prive-particulier/fundsheet/obligations-europeennes/bnp-paribas-l1-bond-euro-high-yield-classic-c-lu0907251226
p596
sVfr0010146803
p597
Vhttp://www.bnpparibas-ip.fr/investisseur-prive-particulier/fundsheet/diversifie-monde/bnp-paribas-retraite-responsable-2022-2024-p-c-fr0010146803
p598
sVfr0010693168
p599
Vhttp://www.bnpparibas-ip.fr/investisseur-prive-particulier/fundsheet/obligations-europeennes/camgestion-oblicycle-credit-classic-c-fr0010693168
p600
sVlu1049884668
p601
g545
sVlu1022404724
p602
g273
sVlu0823412423
p603
g165
sVlu0823398929
p604
g286
sVfr0011882331
p605
Vhttp://www.bnpparibas-ip.fr/investisseur-prive-particulier/fundsheet/produits-structures/isis-europe-value-2020-classic-c-fr0011882331
p606
sVlu1022405374
p607
g273
sVfr0010028761
p608
Vhttp://www.bnpparibas-ip.fr/investisseur-prive-particulier/fundsheet/obligations-convertibles-europeennes/bnp-paribas-convertibles-europe-classic-c-fr0010028761
p609
sVlu0212175227
p610
g54
sVlu0107088931
p611
Vhttp://www.bnpparibas-ip.fr/investisseur-prive-particulier/fundsheet/diversifie-monde/parvest-diversified-dynamic-classic-c-lu0089291651
p612
sVlu0107087537
p613
g52
sVlu0158087725
p614
Vhttp://www.bnpparibas-ip.fr/investisseur-prive-particulier/fundsheet/actions-europeennes/bnp-paribas-l1-equity-euro-classic-c-lu0087045034
p615
sVlu1291097423
p616
Vhttp://www.bnpparibas-ip.fr/investisseur-prive-particulier/fundsheet/actions-emergentes/bnp-paribas-easy-msci-emerging-markets-ex-controversial-weapons-track-classic-c-lu1291097340
p617
sVlu0823450191
p618
g261
sVlu0823428932
p619
Vhttp://www.bnpparibas-ip.fr/investisseur-prive-particulier/fundsheet/actions-emergentes/parvest-equity-india-classic-eur-c-lu0823428346
p620
sVlu1022808494
p621
g450
sVlu1078738058
p622
g481
sVlu0823415871
p623
g20
sVlu0828230697
p624
g366
sVlu0823396717
p625
g8
sVfr0010274035
p626
Vhttp://www.bnpparibas-ip.fr/investisseur-prive-particulier/fundsheet/actions-europeennes/cnp-actions-europe-pioneer-a-h-fr0010250050
p627
sVlu0823448294
p628
Vhttp://www.bnpparibas-ip.fr/investisseur-prive-particulier/fundsheet/obligations-internationales/parvest-bond-absolute-return-v350-classic-c-lu0823447643
p629
sVlu0107086646
p630
g358
sVlu0823447213
p631
g366
sVlu1291108303
p632
g298
sVlu1056594747
p633
g194
sVfr0007436654
p634
Vhttp://www.bnpparibas-ip.fr/investisseur-prive-particulier/fundsheet/obligations-internationales/munich-re-placement-classique-c-fr0007436654
p635
sVlu0823448450
p636
g629
sVlu0823407340
p637
g479
sVfr0007024583
p638
Vhttp://www.bnpparibas-ip.fr/investisseur-prive-particulier/fundsheet/diversifie-monde/cortal-consors-open-patrimoine-classic-c-fr0007024583
p639
sVlu1291101555
p640
Vhttp://www.bnpparibas-ip.fr/investisseur-prive-particulier/fundsheet/actions-europeennes/bnp-paribas-easy-msci-europe-small-caps-ex-controversial-weapons-track-privilege-c-lu1291101126
p641
sVfr0010948455
p642
Vhttp://www.bnpparibas-ip.fr/investisseur-prive-particulier/fundsheet/produits-structures/everglades-classic-c-fr0010948455
p643
sVlu0823415285
p644
g233
sVlu1235106660
p645
Vhttp://www.bnpparibas-ip.fr/investisseur-prive-particulier/fundsheet/actions-europeennes/theam-quant-equity-europe-guru-c-capitalisationlu1235104293
p646
sVlu0950381748
p647
Vhttp://www.bnpparibas-ip.fr/investisseur-prive-particulier/fundsheet/actions-europeennes/bnp-paribas-easy-ftse-epra-nareit-eurozone-capped-ucits-etf-qd-d-lu0192223062
p648
sVlu0925122151
p649
g348
sVlu0089291651
p650
g612
sVfr0012169837
p651
Vhttp://www.bnpparibas-ip.fr/investisseur-prive-particulier/fundsheet/matieres-premieres/theam-quant-raw-materials-enhanced-b-eur-h-c-fr0012169860
p652
sVlu0823448377
p653
g629
sVfr0010077321
p654
Vhttp://www.bnpparibas-ip.fr/investisseur-prive-particulier/fundsheet/actions-europeennes/bnp-paribas-finance-europe-classic-c-fr0010077321
p655
sVfr0011617729
p656
g158
sVlu0823422653
p657
g290
sVlu0823383061
p658
Vhttp://www.bnpparibas-ip.fr/investisseur-prive-particulier/fundsheet/produits-de-taux-emergents/parvest-bond-europe-emerging-classic-c-lu0823382766
p659
sVlu0347712357
p660
g255
sVfr0010146894
p661
g131
sVlu1022808148
p662
g450
sVfr0010911107
p663
Vhttp://www.bnpparibas-ip.fr/investisseur-prive-particulier/fundsheet/produits-structures/appaloosa-classic-c-fr0010911107
p664
sVfr0010334573
p665
Vhttp://www.bnpparibas-ip.fr/investisseur-prive-particulier/fundsheet/diversifie-monde/dynamique-classic-c-fr0010334573
p666
sVfr0000977555
p667
Vhttp://www.bnpparibas-ip.fr/investisseur-prive-particulier/fundsheet/diversifie-monde/selection-moderate-international-classic-c-fr0000977555
p668
sVlu0823397525
p669
g461
sVlu0823394266
p670
g52
sVlu0823398416
p671
g286
sVlu0823443659
p672
g32
sVlu0930020085
p673
Vhttp://www.bnpparibas-ip.fr/investisseur-prive-particulier/fundsheet/produits-structures/bnp-paribas-plan-easy-future-2028-classic-c-lu0930019749
p674
sVlu0925122748
p675
g85
sVlu0111549134
p676
g523
sVfr0010565424
p677
Vhttp://www.bnpparibas-ip.fr/investisseur-prive-particulier/fundsheet/actions-internationales/theam-euro-long-vol-classic-c-fr0010565424
p678
sVlu0167238863
p679
g326
sVlu0823395743
p680
g203
sVlu1291105382
p681
Vhttp://www.bnpparibas-ip.fr/investisseur-prive-particulier/fundsheet/actions-emergentes/bnp-paribas-easy-msci-pacific-ex-japan-ex-controversial-weapons-track-classic-capitalisationlu1291105382
p682
sVfr0010146852
p683
Vhttp://www.bnpparibas-ip.fr/investisseur-prive-particulier/fundsheet/diversifie-monde/bnp-paribas-retraite-responsable-50-p-c-fr0010146852
p684
sVfr0007484399
p685
Vhttp://www.bnpparibas-ip.fr/investisseur-prive-particulier/fundsheet/marche-monetaire-eur/invest-monetaire-classic-c-fr0007484399
p686
sVlu0925123472
p687
g85
sVlu0177332490
p688
g354
sVlu0283503844
p689
g337
sVlu0823397368
p690
g461
sVlu1291106356
p691
g682
sVfr0010692301
p692
Vhttp://www.bnpparibas-ip.fr/investisseur-prive-particulier/fundsheet/produits-structures/capoeira-classic-c-fr0010692301
p693
sVlu0075938133
p694
g527
sVlu0823381792
p695
g404
sVlu1049884239
p696
g545
sVlu0154245673
p697
g560
sVlu0823382766
p698
g659
sVfr0013125663
p699
Vhttp://www.bnpparibas-ip.fr/investisseur-prive-particulier/fundsheet/actions-europeennes/theam-quant-equity-eurozone-guru-j-c-fr0013125663
p700
sVfr0011201003
p701
Vhttp://www.bnpparibas-ip.fr/investisseur-prive-particulier/fundsheet/produits-structures/bnp-paribas-gestion-active-plus-classic-c-fr0011201003
p702
sVfr0010839274
p703
Vhttp://www.bnpparibas-ip.fr/investisseur-prive-particulier/fundsheet/diversifie-monde/bnp-paribas-retraite-responsable-2028-2030-p-c-fr0010839274
p704
sVfr0010732719
p705
Vhttp://www.bnpparibas-ip.fr/investisseur-prive-particulier/fundsheet/portefeuilles-diversifies-europe/camgestion-europe-modere-classique-c-fr0010732719
p706
sVlu0823437925
p707
g42
sVfr0010714261
p708
g6
sVlu0823400766
p709
g206
sVlu1481202775
p710
Vhttp://www.bnpparibas-ip.fr/investisseur-prive-particulier/fundsheet/obligations-internationales/bnp-paribas-easy-markit-iboxx-eur-liquid-corporates-track-privilege-c-lu1291094321
p711
sVlu0823379036
p712
g46
sVfr0010276949
p713
Vhttp://www.bnpparibas-ip.fr/investisseur-prive-particulier/fundsheet/obligations-internationales/bnp-paribas-easy-markit-iboxx-liquid-sovereigns-ucits-etf-classique-c-fr0010276949
p714
sVlu0265268929
p715
g163
sVlu0903144755
p716
g261
sVlu0823443816
p717
g32
sVlu1049889972
p718
g129
sVlu0167237972
p719
Vhttp://www.bnpparibas-ip.fr/investisseur-prive-particulier/fundsheet/marche-monetaire-eur/bnp-paribas-insticash-eur-classic-c-lu0167237543
p720
sVlu0132151118
p721
g504
sVlu1056594234
p722
g194
sVlu0907251572
p723
Vhttp://www.bnpparibas-ip.fr/investisseur-prive-particulier/fundsheet/obligations-convertibles-internationales/bnp-paribas-l1-convertible-bond-world-classic-c-lu0907251572
p724
sVfr0011950583
p725
g305
sVlu0086914362
p726
g358
sVlu0957145286
p727
g119
sVlu1104113243
p728
g99
sVlu0823389852
p729
g71
sVlu1291099718
p730
Vhttp://www.bnpparibas-ip.fr/investisseur-prive-particulier/fundsheet/actions-europeennes/bnp-paribas-easy-msci-europe-ex-controversial-weapons-track-classic-c-lu1291099395
p731
sVlu0823388888
p732
g174
sVlu1120433732
p733
g300
sVlu0282885655
p734
Vhttp://www.bnpparibas-ip.fr/investisseur-prive-particulier/fundsheet/actions-europeennes/parvest-equity-europe-small-cap-classic-c-lu0212178916
p735
sVlu1291098660
p736
g376
sVlu1022394404
p737
g463
sVfr0011819002
p738
Vhttp://www.bnpparibas-ip.fr/investisseur-prive-particulier/fundsheet/obligations-europeennes/bnp-paribas-oblipar-classic-c-fr0011829225
p739
sVlu0283434859
p740
g24
sVlu0111463849
p741
g358
sVlu0907251226
p742
g596
sVfr0011279827
p743
g408
sVfr0007010632
p744
Vhttp://www.bnpparibas-ip.fr/investisseur-prive-particulier/fundsheet/portefeuilles-diversifies-europe/camgestion-ep-classique-d-fr0007010632
p745
sVlu0095613823
p746
g303
sVlu0099625146
p747
Vhttp://www.bnpparibas-ip.fr/investisseur-prive-particulier/fundsheet/obligations-internationales/parvest-flexible-bond-europe-corporate-classic-c-lu0099625146
p748
sVlu0107049875
p749
g348
sVfr0011538230
p750
Vhttp://www.bnpparibas-ip.fr/investisseur-prive-particulier/fundsheet/actions-europeennes/bnp-paribas-indice-euro-classic-c-fr0011538230
p751
sVlu0540527073
p752
Vhttp://www.bnpparibas-ip.fr/investisseur-prive-particulier/fundsheet/obligations-europeennes/bnp-paribas-flexi-i-bond-government-euro-restricted-classic-c-lu0540527073
p753
sVlu0111461124
p754
g292
sVlu0823391247
p755
Vhttp://www.bnpparibas-ip.fr/investisseur-prive-particulier/fundsheet/obligations-americaines/parvest-bond-usd-classic-eur-c-lu0823391080
p756
sVlu0159095446
p757
Vhttp://www.bnpparibas-ip.fr/investisseur-prive-particulier/fundsheet/diversifie-monde/bnp-paribas-l1-sustainable-active-allocation-classic-c-lu0087047089
p758
sVlu0075937911
p759
g527
sVfr0010077255
p760
Vhttp://www.bnpparibas-ip.fr/investisseur-prive-particulier/fundsheet/produits-structures/bnp-paribas-multistrategies-protection-80-classic-c-fr0010077255
p761
sVfr0010150458
p762
Vhttp://www.bnpparibas-ip.fr/investisseur-prive-particulier/fundsheet/actions-europeennes/bnp-paribas-easy-cac-40-ucits-etf-classique-d-fr0010150458
p763
sVlu1303481060
p764
Vhttp://www.bnpparibas-ip.fr/investisseur-prive-particulier/fundsheet/autres-fonds-actions-pays-developpes/bnp-paribas-l1-japan-classic-eur-c-lu1303481060
p765
sVfr0011222462
p766
Vhttp://www.bnpparibas-ip.fr/investisseur-prive-particulier/fundsheet/produits-de-taux-emergents/bnp-paribas-obliselect-terra-nova-2017-classic-c-fr0011222439
p767
sVlu0823444467
p768
Vhttp://www.bnpparibas-ip.fr/investisseur-prive-particulier/fundsheet/immobilier-monde/parvest-real-estate-securities-world-classic-c-lu0823444111
p769
sVlu0111478524
p770
g4
sVlu0194435318
p771
g337
sVno0010668114
p772
Vhttp://www.bnpparibas-ip.fr/investisseur-prive-particulier/fundsheet/obligations-europeennes/alfred-berg-hoyrente-classic-eur-d-no0010668114
p773
sVlu0823391080
p774
g756
sVlu0531997046
p775
g167
sVlu0159091882
p776
g504
sVlu0111478441
p777
g79
sVfr0010248310
p778
Vhttp://www.bnpparibas-ip.fr/investisseur-prive-particulier/fundsheet/actions-europeennes/cnp-actions-europe-schroders-a-h-fr0010248310
p779
sVfr0010077859
p780
Vhttp://www.bnpparibas-ip.fr/investisseur-prive-particulier/fundsheet/actions-europeennes/bnp-paribas-midcap-france-classic-c-fr0010616177
p781
sVlu0132152785
p782
g167
sVlu0823404248
p783
g296
sVlu0823428007
p784
g519
sVlu0066794479
p785
g184
sVlu0823430326
p786
g97
sVlu0823394001
p787
g303
sVlu0828230937
p788
g366
sVlu1291101985
p789
g445
sVlu0823391833
p790
g148
sVlu0111451240
p791
g266
sVlu0212175060
p792
g54
sVlu0823430243
p793
g97
sVlu0131211418
p794
Vhttp://www.bnpparibas-ip.fr/investisseur-prive-particulier/fundsheet/obligations-europeennes/parvest-bond-euro-corporate-classic-c-lu0131210360
p795
sVlu0283465069
p796
g756
sVfr0010116541
p797
Vhttp://www.bnpparibas-ip.fr/investisseur-prive-particulier/fundsheet/actions-europeennes/bnp-paribas-actions-euroland-classic-c-fr0010115410
p798
sVfr0013230232
p799
Vhttp://www.bnpparibas-ip.fr/investisseur-prive-particulier/fundsheet/obligations-europeennes/bnp-paribas-credit-12-m-classic-c-fr0013230232
p800
sVlu1049885806
p801
g423
sVlu0823431050
p802
g348
sVlu1291109293
p803
Vhttp://www.bnpparibas-ip.fr/investisseur-prive-particulier/fundsheet/actions-internationales/bnp-paribas-easy-nmx-30-infrastructure-global-ucits-etf-c-lu1291109293
p804
sVlu0547770783
p805
g720
sVlu0212180813
p806
g735
sVlu0087047089
p807
g758
sVfr0007045901
p808
Vhttp://www.bnpparibas-ip.fr/investisseur-prive-particulier/fundsheet/diversifie-monde/gestion-equilibre-international-classic-c-fr0007045901
p809
sVlu0265291822
p810
Vhttp://www.bnpparibas-ip.fr/investisseur-prive-particulier/fundsheet/obligations-convertibles-europeennes/parvest-convertible-bond-europe-small-cap-classic-c-lu0265291665
p811
sVlu1049884585
p812
g545
sVlu0265313816
p813
g163
sVlu0075933175
p814
g199
sVlu0116160465
p815
g219
sVlu0823408660
p816
g250
sVlu1056591487
p817
g555
sVlu1022400060
p818
g450
sVfr0010688077
p819
g578
sVlu0823429401
p820
g620
sVlu0111465547
p821
g748
sVfr0011383538
p822
Vhttp://www.bnpparibas-ip.fr/investisseur-prive-particulier/fundsheet/marche-monetaire-eur/bnp-paribas-invest-3-mois-classic-c-fr0010209916
p823
sVfr0007026448
p824
Vhttp://www.bnpparibas-ip.fr/investisseur-prive-particulier/fundsheet/diversifie-monde/selection-dynamique-europe-classic-c-fr0007026448
p825
sVlu0823429583
p826
g620
sVfr0010137166
p827
Vhttp://www.bnpparibas-ip.fr/investisseur-prive-particulier/fundsheet/actions-europeennes/bnp-paribas-euro-valeurs-durables-classic-c-fr0010137166
p828
sVlu0823404750
p829
g296
sVlu1022392028
p830
g459
sVfr0010076430
p831
Vhttp://www.bnpparibas-ip.fr/investisseur-prive-particulier/fundsheet/diversifie-monde/bnp-paribas-selection-dynamique-pea-classic-c-fr0010076430
p832
sVfr0010390807
p833
Vhttp://www.bnpparibas-ip.fr/investisseur-prive-particulier/fundsheet/diversifie-monde/bnp-paribas-retraite-responsable-2025-2027-p-c-fr0010390807
p834
sVfr0012538106
p835
Vhttp://www.bnpparibas-ip.fr/investisseur-prive-particulier/fundsheet/actions-internationales/bnp-paribas-strategie-privee-actions-internationales-classic-c-fr0012538106
p836
sVlu0111479092
p837
g527
sVlu0075933415
p838
g199
sVfr0010325597
p839
Vhttp://www.bnpparibas-ip.fr/investisseur-prive-particulier/fundsheet/actions-internationales/bnp-paribas-telecoms-classic-c-fr0010325597
p840
sVlu1022394826
p841
g463
sVlu0823394936
p842
g203
sVlu1056594408
p843
g194
sVlu0531774841
p844
g219
sVlu0823381362
p845
g467
sVfr0010319434
p846
Vhttp://www.bnpparibas-ip.fr/investisseur-prive-particulier/fundsheet/actions-europeennes/camgestion-actions-croissance-classic-c-fr0010319434
p847
sVlu1049884825
p848
g545
sVlu0823383145
p849
g659
sVlu0167237543
p850
g720
sVfr0011238898
p851
Vhttp://www.bnpparibas-ip.fr/investisseur-prive-particulier/fundsheet/produits-structures/3-dyneurope-classic-c-fr0011238898
p852
sVlu0950374610
p853
g121
sVlu0823449185
p854
g261
sVfr0007068044
p855
Vhttp://www.bnpparibas-ip.fr/investisseur-prive-particulier/fundsheet/actions-europeennes/bnp-paribas-easy-stoxx-europe-600-telecommunications-ucits-etf-classique-c-fr0007068044
p856
sVfr0007031562
p857
Vhttp://www.bnpparibas-ip.fr/investisseur-prive-particulier/fundsheet/actions-internationales/multigerants-dynamique-classique-c-fr0007031562
p858
sVlu1291097779
p859
g617
sVlu0823386163
p860
g243
sVfr0010108977
p861
Vhttp://www.bnpparibas-ip.fr/investisseur-prive-particulier/fundsheet/actions-internationales/bnp-paribas-actions-monde-classic-c-fr0010108977
p862
sVlu1353183533
p863
Vhttp://www.bnpparibas-ip.fr/investisseur-prive-particulier/fundsheet/rendement-absolu/theam-quant-multi-asset-diversified-c-capitalisationlu1353183533
p864
sVlu0194604798
p865
g724
sVlu0823395669
p866
g203
sVlu0249332452
p867
g257
sVlu0087045034
p868
g615
sVlu1151728596
p869
g529
sVlu0823444897
p870
g769
sVfr0007074208
p871
Vhttp://www.bnpparibas-ip.fr/investisseur-prive-particulier/fundsheet/actions-europeennes/camgestion-actions-rendement-classique-h-fr0007074208
p872
sVlu1329018219
p873
g423
sVlu0172350877
p874
g16
sVlu0823432025
p875
g152
sVfr0011102805
p876
Vhttp://www.bnpparibas-ip.fr/investisseur-prive-particulier/fundsheet/produits-structures/protected-trend-fund-a-c-fr0011102805
p877
sVlu0823380984
p878
g467
sVfr0011908094
p879
g331
sVfr0010077172
p880
Vhttp://www.bnpparibas-ip.fr/investisseur-prive-particulier/fundsheet/actions-europeennes/bnp-paribas-midcap-europe-classic-c-fr0010077172
p881
sVlu1291102447
p882
g445
sVfr0011314319
p883
g312
sVfr0010128587
p884
g502
sVlu0531757754
p885
g615
sVlu0282388437
p886
g549
sVfr0011132380
p887
Vhttp://www.bnpparibas-ip.fr/investisseur-prive-particulier/fundsheet/produits-structures/bnp-paribas-4-dragons-protection-95-2017-classic-c-fr0011132380
p888
sVlu0531774767
p889
g219
sVlu1165137149
p890
g50
sVlu0265289339
p891
Vhttp://www.bnpparibas-ip.fr/investisseur-prive-particulier/fundsheet/obligations-europeennes/parvest-sustainable-bond-euro-corporate-classic-c-lu0265288877
p892
sVlu0823449938
p893
g261
sVlu1049886283
p894
g423
sVlu0531768959
p895
g38
sVlu0107048042
p896
g337
sVlu1377382103
p897
Vhttp://www.bnpparibas-ip.fr/investisseur-prive-particulier/fundsheet/actions-europeennes/bnp-paribas-easy-equity-quality-europe-ucits-etf-c-lu1377382103
p898
sVfr0007068036
p899
Vhttp://www.bnpparibas-ip.fr/investisseur-prive-particulier/fundsheet/actions-europeennes/bnp-paribas-easy-stoxx-europe-600-utilities-ucits-etf-classique-c-fr0007068036
p900
sVfr0010107235
p901
g500
sVfr0012722882
p902
g34
sVfr0010715326
p903
Vhttp://www.bnpparibas-ip.fr/investisseur-prive-particulier/fundsheet/diversifie-monde/camgestion-g-n-ration-avenir-classic-c-fr0010715326
p904
sVlu1291109533
p905
g566
sVlu0012182639
p906
g4
sVlu0823402119
p907
g339
sVlu1235104020
p908
g646
sVlu1291096375
p909
Vhttp://www.bnpparibas-ip.fr/investisseur-prive-particulier/fundsheet/obligations-internationales/bnp-paribas-easy-markit-iboxx-global-developed-markets-liquid-100-high-yield-capped-track-privilege-rh-eur-capitalisationlu1291096375
p910
sVlu1151729727
p911
Vhttp://www.bnpparibas-ip.fr/investisseur-prive-particulier/fundsheet/actions-internationales/bnp-paribas-l1-smart-food-classic-c-lu1151729644
p912
sVlu1080341065
p913
g496
sVlu1104114647
p914
g101
sVlu0930020671
p915
g580
sVlu1165135440
p916
Vhttp://www.bnpparibas-ip.fr/investisseur-prive-particulier/fundsheet/actions-internationales/parvest-aqua-classic-c-lu1165135440
p917
sVlu0111493838
p918
g223
sVlu1163234351
p919
g178
sVlu0823385355
p920
g243
sVlu0282880698
p921
g235
sVlu0823414049
p922
g511
sVlu0212188121
p923
g12
sVlu1291099395
p924
g731
sVlu1492558348
p925
g545
sVfr0010129742
p926
g502
sVlu0111549480
p927
g40
sVlu0540527230
p928
g753
sVlu0251807045
p929
g560
sVfr0013153228
p930
g508
sVlu0010012721
p931
g381
sVlu1291094321
p932
g711
sVfr0011482686
p933
Vhttp://www.bnpparibas-ip.fr/investisseur-prive-particulier/fundsheet/marche-monetaire-eur/bnp-paribas-mois-isr-classic-c-fr0011482686
p934
sVlu0012186549
p935
Vhttp://www.bnpparibas-ip.fr/investisseur-prive-particulier/fundsheet/marche-monetaire-usd/parvest-money-market-usd-classic-c-lu0012186622
p936
sVfr0011257310
p937
g469
sVlu0194438841
p938
g266
sVlu0531998440
p939
Vhttp://www.bnpparibas-ip.fr/investisseur-prive-particulier/fundsheet/diversifie-monde/bnp-paribas-l1-diversified-world-stability-classic-c-lu0132151621
p940
sVlu0823444624
p941
g769
sVlu0823379895
p942
g46
sVlu1022394313
p943
g463
sVlu0069970746
p944
g266
sVlu1260147084
p945
Vhttp://www.bnpparibas-ip.fr/investisseur-prive-particulier/fundsheet/rendement-absolu/parworld-absolute-return-equity-neutral-classic-c-lu1260147084
p946
sVlu1104109647
p947
g303
sVlu0823387641
p948
g257
sVlu0823399810
p949
g206
sVlu1235104293
p950
g646
sVlu1049885988
p951
g423
sVlu0192223062
p952
g648
sVlu1163234518
p953
g178
sVlu0823416093
p954
g20
sVlu0823435127
p955
Vhttp://www.bnpparibas-ip.fr/investisseur-prive-particulier/fundsheet/actions-americaines/parvest-equity-usa-growth-classic-eur-c-lu0823434237
p956
sVfr0010629147
p957
Vhttp://www.bnpparibas-ip.fr/investisseur-prive-particulier/fundsheet/actions-europeennes/cortal-consors-open-croissance-classic-c-fr0010629147
p958
sVfr0013041530
p959
g484
sVlu1104112195
p960
Vhttp://www.bnpparibas-ip.fr/investisseur-prive-particulier/fundsheet/actions-emergentes/parvest-equity-new-frontiers-classic-c-lu1104111890
p961
sVlu0111481668
p962
g69
sVlu0258897114
p963
Vhttp://www.bnpparibas-ip.fr/investisseur-prive-particulier/fundsheet/produits-structures/bnp-paribas-plan-international-derivatives-classic-c-lu0258897114
p964
sVfr0013127164
p965
g269
sVlu0823434740
p966
g956
sVlu0823389696
p967
g71
sVlu0823408231
p968
g250
sVlu0116160549
p969
g219
sVlu0823409809
p970
g280
sVlu0823419782
p971
Vhttp://www.bnpparibas-ip.fr/investisseur-prive-particulier/fundsheet/actions-internationales/parvest-equity-world-materials-classic-c-lu0823419436
p972
sVfr0012443174
p973
g263
sVlu1022808577
p974
g450
sVlu0823450605
p975
g261
sVlu0823409718
p976
g280
sVfr0010077206
p977
Vhttp://www.bnpparibas-ip.fr/investisseur-prive-particulier/fundsheet/produits-structures/bnp-paribas-actions-euro-protege-classic-c-fr0010077206
p978
sVlu0190305630
p979
g404
sVfr0010376798
p980
Vhttp://www.bnpparibas-ip.fr/investisseur-prive-particulier/fundsheet/diversifie-monde/fundquest-balanced-classic-c-fr0010376798
p981
sVlu1291099478
p982
g731
sVlu0531758133
p983
g381
sVfr0011908078
p984
g331
sVlu0111453535
p985
g199
sVlu0111482476
p986
g69
sVfr0012591592
p987
Vhttp://www.bnpparibas-ip.fr/investisseur-prive-particulier/fundsheet/diversifie-monde/bnpp-european-flexible-income-a-h-fr0012591600
p988
sVlu0111469705
p989
g612
sVlu1377381717
p990
g2
sVfr0013176344
p991
g322
sVbe0146937793
p992
Vhttp://www.bnpparibas-ip.fr/investisseur-prive-particulier/fundsheet/diversifie-monde/bnp-paribas-b-strategy-global-neutral-classic-d-be0146937793
p993
sVlu1056591990
p994
g555
sVlu1377381980
p995
Vhttp://www.bnpparibas-ip.fr/investisseur-prive-particulier/fundsheet/actions-americaines/bnp-paribas-easy-equity-low-vol-us-ucits-etf-c-lu1377381980
p996
sVlu0111444898
p997
g337
sVlu0823429666
p998
g620
sVlu0930019319
p999
g307
sVfr0012443182
p1000
g263
sVlu0879078565
p1001
g756
sVfr0010028779
p1002
Vhttp://www.bnpparibas-ip.fr/investisseur-prive-particulier/fundsheet/actions-americaines/bnp-paribas-actions-usa-classic-c-fr0010028779
p1003
sVlu1165135796
p1004
g917
sVfr0010101493
p1005
Vhttp://www.bnpparibas-ip.fr/investisseur-prive-particulier/fundsheet/actions-europeennes/bnp-paribas-valeurs-francaises-classic-c-fr0010028902
p1006
sVfr0010098210
p1007
g536
sVfr0007044698
p1008
Vhttp://www.bnpparibas-ip.fr/investisseur-prive-particulier/fundsheet/diversifie-monde/borghese-finance-classique-c-fr0007044698
p1009
sVlu1235113872
p1010
Vhttp://www.bnpparibas-ip.fr/investisseur-prive-particulier/fundsheet/actions-americaines/theam-quant-equity-us-income-protected-protected-i-c-lu1235113872
p1011
sVlu1342920672
p1012
Vhttp://www.bnpparibas-ip.fr/investisseur-prive-particulier/fundsheet/portefeuilles-diversifies-emergents/parvest-multi-asset-income-emerging-classic-eur-c-lu1342920672
p1013
sVlu0212176621
p1014
g54
sVno0010446552
p1015
g773
sVlu0190306364
p1016
g404
sVfr0010052043
p1017
Vhttp://www.bnpparibas-ip.fr/investisseur-prive-particulier/fundsheet/diversifie-monde/perseis-opportunites-monde-classic-c-fr0010052043
p1018
sVlu0083138064
p1019
g292
sVfr0011540152
p1020
Vhttp://www.bnpparibas-ip.fr/investisseur-prive-particulier/fundsheet/produits-structures/bnp-paribas-environnement-2019-classic-c-fr0011540152
p1021
sVlu1163234609
p1022
g178
sVlu1291091228
p1023
Vhttp://www.bnpparibas-ip.fr/investisseur-prive-particulier/fundsheet/actions-europeennes/bnp-paribas-easy-ftse-epra-nareit-developed-europe-ucits-etf-qd-d-lu1291091228
p1024
sVlu0360646680
p1025
Vhttp://www.bnpparibas-ip.fr/investisseur-prive-particulier/fundsheet/actions-europeennes/parvest-flexible-equity-europe-classic-c-lu0360646680
p1026
sVbe0146935771
p1027
Vhttp://www.bnpparibas-ip.fr/investisseur-prive-particulier/fundsheet/diversifie-monde/bnp-paribas-b-strategy-global-defensive-classic-c-be0146934766
p1028
sVlu0823392302
p1029
g148
sVbe0163305544
p1030
Vhttp://www.bnpparibas-ip.fr/investisseur-prive-particulier/fundsheet/diversifie-monde/bnp-paribas-b-strategy-global-dynamic-classic-d-be0163305544
p1031
sVfr0010655597
p1032
Vhttp://www.bnpparibas-ip.fr/investisseur-prive-particulier/fundsheet/actions-europeennes/bnp-paribas-easy-low-carbon-100-europe-ucits-etf-classique-c-fr0010655597
p1033
sVlu0823425912
p1034
g182
sVlu0823426720
p1035
g182
sVlu0823447643
p1036
g629
sVfr0010137174
p1037
g828
sVlu0282274348
p1038
g248
sVlu0283519337
p1039
g348
sVlu1049887331
p1040
g423
sVfr0000442014
p1041
g639
sVfr0010997858
p1042
Vhttp://www.bnpparibas-ip.fr/investisseur-prive-particulier/fundsheet/diversifie-monde/camgestion-g-n-ration-2026-30-classic-c-fr0010997858
p1043
sVlu0823444970
p1044
g769
sVlu1022396367
p1045
g203
sVlu0265313147
p1046
g253
sVlu1120436248
p1047
g343
sVlu0823389001
p1048
g174
sVfr0007433669
p1049
Vhttp://www.bnpparibas-ip.fr/investisseur-prive-particulier/fundsheet/diversifie-monde/gf-euro-convictions-classique-c-fr0007433669
p1050
sVlu1120436164
p1051
g343
sVlu1291100664
p1052
Vhttp://www.bnpparibas-ip.fr/investisseur-prive-particulier/fundsheet/actions-europeennes/bnp-paribas-easy-msci-europe-ex-uk-ex-controversial-weapons-track-classic-c-lu1291100151
p1053
sVlu1022398819
p1054
g271
sVfr0007068077
p1055
Vhttp://www.bnpparibas-ip.fr/investisseur-prive-particulier/fundsheet/actions-europeennes/bnp-paribas-easy-stoxx-europe-600-banks-ucits-etf-classique-c-fr0007068077
p1056
sVlu0879078482
p1057
g756
sVlu0823423032
p1058
g117
sVlu0823400840
p1059
g206
sVfr0010130765
p1060
Vhttp://www.bnpparibas-ip.fr/investisseur-prive-particulier/fundsheet/obligations-europeennes/bnp-paribas-obli-etat-classic-c-fr0010130765
p1061
sVlu0377063960
p1062
g442
sVfr0011742550
p1063
Vhttp://www.bnpparibas-ip.fr/investisseur-prive-particulier/fundsheet/matieres-premieres/theam-quant-dynamic-raw-materials-a-usd-c-fr0011742527
p1064
sVlu0823433429
p1065
g75
sVlu0823443493
p1066
g32
sVlu1291107917
p1067
g160
sVlu0212178916
p1068
g735
sVlu1151729644
p1069
g912
sVlu0159059996
p1070
g113
sVlu0930020325
p1071
Vhttp://www.bnpparibas-ip.fr/investisseur-prive-particulier/fundsheet/produits-structures/bnp-paribas-plan-easy-future-2033-classic-c-lu0930020168
p1072
sVlu0154246051
p1073
g560
sVfr0010076612
p1074
g150
sVlu1291091814
p1075
g227
sVfr0000294738
p1076
Vhttp://www.bnpparibas-ip.fr/investisseur-prive-particulier/fundsheet/marche-monetaire-eur/cardif-tresorerie-classic-c-fr0000294738
p1077
sVfr0007445119
p1078
Vhttp://www.bnpparibas-ip.fr/investisseur-prive-particulier/fundsheet/actions-emergentes/camgestion-emerging-bric-classique-c-fr0007445119
p1079
sVfr0010076943
p1080
g115
sVfr0011550193
p1081
g180
sVlu0225845535
p1082
g235
sVlu1104108755
p1083
g56
sVfr0010714253
p1084
g6
sVlu1291103338
p1085
g551
sVlu0662594125
p1086
g303
sVfr0010077412
p1087
Vhttp://www.bnpparibas-ip.fr/investisseur-prive-particulier/fundsheet/actions-europeennes/bnp-paribas-developpement-humain-classic-c-fr0010077412
p1088
sVlu0131210790
p1089
g795
sVfr0010716472
p1090
Vhttp://www.bnpparibas-ip.fr/investisseur-prive-particulier/fundsheet/diversifie-monde/camgestion-g-n-ration-2016-20-classic-c-fr0010716472
p1091
sVlu0930018857
p1092
Vhttp://www.bnpparibas-ip.fr/investisseur-prive-particulier/fundsheet/produits-structures/bnp-paribas-plan-easy-future-2018-classic-c-lu0930018691
p1093
sVlu1022394743
p1094
g463
sVfr0010077388
p1095
g154
sVlu1342920755
p1096
g1013
sVfr0011576610
p1097
Vhttp://www.bnpparibas-ip.fr/investisseur-prive-particulier/fundsheet/obligations-europeennes/bnp-paribas-deposit-moyen-terme-plus-classic-c-fr0011576610
p1098
sVlu0823382170
p1099
g59
sVfr0010315093
p1100
Vhttp://www.bnpparibas-ip.fr/investisseur-prive-particulier/fundsheet/produits-structures/bnp-paribas-protection-monde-classic-c-fr0010315093
p1101
sVlu0823398176
p1102
g461
sVlu1049895516
p1103
g542
sVlu0107086562
p1104
g101
sVlu0190304583
p1105
g404
sVfr0010106849
p1106
g211
sVfr0007068101
p1107
Vhttp://www.bnpparibas-ip.fr/investisseur-prive-particulier/fundsheet/actions-europeennes/bnp-paribas-easy-stoxx-europe-600-insurance-ucits-etf-classique-c-fr0007068101
p1108
sVlu0930020168
p1109
g1072
sVlu0823404834
p1110
g296
sVlu0823413587
p1111
g511
sVfr0007041496
p1112
Vhttp://www.bnpparibas-ip.fr/investisseur-prive-particulier/fundsheet/diversifie-monde/parjet-dynamique-classique-c-fr0007041496
p1113
sVlu0823410724
p1114
g48
sVlu0265288950
p1115
g892
sVfr0011383553
p1116
Vhttp://www.bnpparibas-ip.fr/investisseur-prive-particulier/fundsheet/marche-monetaire-eur/bnp-paribas-tresorerie-3-mois-classic-c-fr0010125880
p1117
sVlu0823447999
p1118
g629
sVlu1022400813
p1119
g450
sVlu0251806666
p1120
g48
sVlu1049888149
p1121
g423
sVlu0251804968
p1122
g337
sVfr0010021576
p1123
g684
sVlu0823381958
p1124
g59
sVlu0823380802
p1125
g467
sVfr0010536144
p1126
g751
sVfr0011046085
p1127
Vhttp://www.bnpparibas-ip.fr/investisseur-prive-particulier/fundsheet/marche-monetaire-eur/bnp-paribas-deposit-classic-c-fr0011046085
p1128
sVlu0950372838
p1129
g360
sVlu0823413074
p1130
g511
sVlu0823411029
p1131
g48
sVlu0089290844
p1132
g612
sVlu1104111114
p1133
g735
sVlu0823425086
p1134
g431
sVlu0251809090
p1135
g348
sVfr0007074356
p1136
Vhttp://www.bnpparibas-ip.fr/investisseur-prive-particulier/fundsheet/actions-internationales/icp-evolution-classique-h-fr0007074356
p1137
sVlu0406803063
p1138
g87
sVno0010668106
p1139
g773
sVlu1104111890
p1140
g961
sVlu0406803147
p1141
g87
sVlu1049896084
p1142
g542
sVfr0011501659
p1143
Vhttp://www.bnpparibas-ip.fr/investisseur-prive-particulier/fundsheet/marche-monetaire-eur/invest-monetaire-4-classic-c-fr0011501659
p1144
sVlu0823428346
p1145
g620
sVlu0823425243
p1146
g431
sVlu0823411375
p1147
g48
sVlu0823416416
p1148
g20
sVlu0265308063
p1149
g892
sVlu0828231075
p1150
g366
sVfr0007035365
p1151
g61
sVlu0823389266
p1152
g174
sVlu1049888651
p1153
g129
sVlu0107069048
p1154
g79
sVlu0823422141
p1155
g290
sVlu0265268689
p1156
g163
sVlu1291104062
p1157
Vhttp://www.bnpparibas-ip.fr/investisseur-prive-particulier/fundsheet/actions-americaines/bnp-paribas-easy-msci-north-america-ex-controversial-weapons-track-classic-c-lu1291103684
p1158
sVlu1291103684
p1159
g1158
sVfr0010028969
p1160
g197
sVlu0823390439
p1161
g71
sVlu0774755085
p1162
g440
sVlu0111549308
p1163
g40
sVfr0010925123
p1164
Vhttp://www.bnpparibas-ip.fr/investisseur-prive-particulier/fundsheet/produits-structures/bnp-paribas-europe-plus-2019-classic-c-fr0010925123
p1165
sVfr0010177527
p1166
Vhttp://www.bnpparibas-ip.fr/investisseur-prive-particulier/fundsheet/actions-internationales/camgestion-avenir-investissement-classic-c-fr0010177527
p1167
sVlu0774754435
p1168
Vhttp://www.bnpparibas-ip.fr/investisseur-prive-particulier/fundsheet/actions-europeennes/parworld-quant-equity-europe-guru-classic-c-lu0774754435
p1169
sVlu0879078136
p1170
g756
sVfr0013140571
p1171
Vhttp://www.bnpparibas-ip.fr/investisseur-prive-particulier/fundsheet/actions-zone-euro/theam-quant-equity-eurozone-income-defensive-j-c-fr0013140571
p1172
sVlu1056594317
p1173
g194
sVfr0012740934
p1174
Vhttp://www.bnpparibas-ip.fr/investisseur-prive-particulier/fundsheet/actions-emergentes/bnp-paribas-easy-next-11-ucits-etf-eur-c-c-fr0012739423
p1175
sVlu0089277312
p1176
g248
sVlu0823426308
p1177
g182
sVlu0823382253
p1178
g59
sVlu0531995693
p1179
g504
sVfr0010263475
p1180
g779
sVfr0007056312
p1181
Vhttp://www.bnpparibas-ip.fr/investisseur-prive-particulier/fundsheet/diversifie-monde/gf-patrimoine-convictions-classique-c-fr0007056312
p1182
sVlu1104112609
p1183
g48
sVlu0823419436
p1184
g972
sVfr0012739928
p1185
g1175
sVlu0930019079
p1186
g221
sVfr0011550177
p1187
g484
sVlu0111464060
p1188
g248
sVlu0167239168
p1189
g326
sVlu0107058785
p1190
g266
sVlu0823385272
p1191
g243
sVfr0000421802
p1192
Vhttp://www.bnpparibas-ip.fr/investisseur-prive-particulier/fundsheet/diversifie-monde/carrefour-selection-classique-h-fr0000421802
p1193
sVlu0176506888
p1194
g381
sVfr0010116574
p1195
g217
sVlu0282388783
p1196
g549
sVlu1049889030
p1197
g129
sVlu0531757911
p1198
g381
sVlu0282274421
p1199
g248
sVlu0249367086
p1200
g257
sVlu1104113326
p1201
g99
sVfr0010147512
p1202
g414
sVlu0823407936
p1203
g250
sVlu1481201611
p1204
g898
sVfr0010133892
p1205
Vhttp://www.bnpparibas-ip.fr/investisseur-prive-particulier/fundsheet/obligations-internationales/bnp-paribas-obli-monde-classic-c-fr0010133892
p1206
sVfr0007020094
p1207
Vhttp://www.bnpparibas-ip.fr/investisseur-prive-particulier/fundsheet/marche-monetaire-eur/invest-monetaire-3-classic-c-fr0007020094
p1208
sVlu0038743380
p1209
g101
sVlu1049884742
p1210
g545
sVlu1120431108
p1211
g516
sVlu0245286934
p1212
g362
sVfr0011351717
p1213
Vhttp://www.bnpparibas-ip.fr/investisseur-prive-particulier/fundsheet/diversifie-monde/bnp-paribas-retraite-responsable-2031-2033-p-c-fr0011351717
p1214
sVfr0010209916
p1215
g823
sVlu0890553851
p1216
g956
sVlu0823434070
p1217
g75
sVlu0281906387
p1218
g253
sVlu1165136505
p1219
g36
sVlu0236672407
p1220
Vhttp://www.bnpparibas-ip.fr/investisseur-prive-particulier/fundsheet/diversifie-monde/bnp-paribas-quam-fund-low-vol-classic-c-lu0236672407
p1221
sVlu0012181748
p1222
g348
sVlu1481201298
p1223
g996
sVfr0011628288
p1224
g110
sVlu0159093748
p1225
g940
sVlu0823397103
p1226
g461
sVlu0111460589
p1227
g936
sVfr0011774686
p1228
Vhttp://www.bnpparibas-ip.fr/investisseur-prive-particulier/fundsheet/obligations-europeennes/bnp-paribas-obli-entreprises-classic-c-fr0011774686
p1229
sVlu0265292556
p1230
g811
sVlu1291101126
p1231
g641
sVlu0823408157
p1232
g250
sVlu0956005572
p1233
g121
sVfr0011585546
p1234
g105
sVlu0823411532
p1235
g48
sVfr0011175645
p1236
g217
sVlu0111483102
p1237
g69
sVlu1022392291
p1238
g459
sVlu0823411961
p1239
g165
sVlu1481201538
p1240
g225
sVlu1481200308
p1241
Vhttp://www.bnpparibas-ip.fr/investisseur-prive-particulier/fundsheet/obligations-internationales/bnp-paribas-easy-barclays-us-treasury-ucits-etf-c-lu1481200308
p1242
sVfr0012088870
p1243
Vhttp://www.bnpparibas-ip.fr/investisseur-prive-particulier/fundsheet/diversifie-monde/bnp-paribas-convictions-a-c-fr0012088870
p1244
sVlu0270761579
p1245
g113
sVlu0132152199
p1246
g940
sVfr0011210129
p1247
Vhttp://www.bnpparibas-ip.fr/investisseur-prive-particulier/fundsheet/diversifie-monde/bnp-paribas-selection-flexible-classic-c-fr0011210129
p1248
sVlu0823407001
p1249
g479
sVfr0010168351
p1250
Vhttp://www.bnpparibas-ip.fr/investisseur-prive-particulier/fundsheet/actions-europeennes/camgestion-situations-sp-ciales-classique-c-fr0010168351
p1251
sVlu0069970662
p1252
g266
sVfr0010732693
p1253
Vhttp://www.bnpparibas-ip.fr/investisseur-prive-particulier/fundsheet/portefeuilles-diversifies-europe/camgestion-europe-offensif-classique-c-fr0010732693
p1254
sVlu0831546592
p1255
Vhttp://www.bnpparibas-ip.fr/investisseur-prive-particulier/fundsheet/actions-internationales/bnp-paribas-l1-equity-world-aqua-classic-c-lu0831546592
p1256
sVlu1049895193
p1257
g542
sVlu0823404594
p1258
g296
sVlu1353183616
p1259
g864
sVlu1291108642
p1260
g298
sVlu0265267285
p1261
g253
sVlu0423950210
p1262
g119
sVlu0177332730
p1263
g354
sVfr0012169860
p1264
g652
sVfr0012459378
p1265
Vhttp://www.bnpparibas-ip.fr/investisseur-prive-particulier/fundsheet/matieres-premieres/theam-quant-raw-materials-income-i-usd-c-fr0012902278
p1266
sVlu0177332227
p1267
g354
sVlu0823415442
p1268
g233
sVfr0011829225
p1269
g739
sVlu0823429823
p1270
g97
sVlu0823434401
p1271
g956
sVfr0011222439
p1272
g767
sVlu0823434237
p1273
g956
sVlu0823416929
p1274
g416
sVlu1291105895
p1275
g682
sVlu0111547609
p1276
g523
sVlu0158989177
p1277
g219
sVfr0010703355
p1278
Vhttp://www.bnpparibas-ip.fr/investisseur-prive-particulier/fundsheet/actions-europeennes/maif-investissement-responsable-europe-p-c-fr0010703355
p1279
sVlu0823438733
p1280
g42
sVlu0823450514
p1281
g261
sVfr0011150010
p1282
Vhttp://www.bnpparibas-ip.fr/investisseur-prive-particulier/fundsheet/produits-structures/protected-target-alpha-fund-a-c-fr0011150010
p1283
sVfr0011482694
p1284
g934
sVlu0547771328
p1285
g356
sVlu0823426993
p1286
g182
sVfr0000977563
p1287
Vhttp://www.bnpparibas-ip.fr/investisseur-prive-particulier/fundsheet/diversifie-monde/selection-dynamique-international-classic-c-fr0000977563
p1288
sVlu0823420954
p1289
g972
sVlu0012182399
p1290
g79
sVlu0225846426
p1291
g235
sVfr0012704856
p1292
Vhttp://www.bnpparibas-ip.fr/investisseur-prive-particulier/fundsheet/obligations-europeennes/bnp-paribas-lcr-1-classic-c-fr0012704856
p1293
sVlu0823380638
p1294
g523
sVfr0007046123
p1295
Vhttp://www.bnpparibas-ip.fr/investisseur-prive-particulier/fundsheet/diversifie-monde/gestion-croissance-classic-c-fr0007046123
p1296
sVlu1291100409
p1297
g1053
sVfr0007448568
p1298
Vhttp://www.bnpparibas-ip.fr/investisseur-prive-particulier/fundsheet/autres-actifs-diversifies-pays-developpes/fracom-classique-d-fr0007448568
p1299
sVfr0010102095
p1300
Vhttp://www.bnpparibas-ip.fr/investisseur-prive-particulier/fundsheet/actions-europeennes/camgestion-rendactis-classique-h-fr0010102095
p1301
sVlu0107087610
p1302
g303
sVlu1291100151
p1303
g1053
sVfr0012443190
p1304
g263
sVlu1022401118
p1305
g450
sVlu0265288877
p1306
g892
sVlu0823401905
p1307
g339
sVlu0823418545
p1308
g146
sVlu0107072935
p1309
g527
sVfr0013146347
p1310
Vhttp://www.bnpparibas-ip.fr/investisseur-prive-particulier/fundsheet/obligations-internationales/theam-quant-fi-high-vol-super-x-c-fr0013146347
p1311
sVfr0012598530
p1312
g14
sVfr0007068093
p1313
Vhttp://www.bnpparibas-ip.fr/investisseur-prive-particulier/fundsheet/actions-europeennes/bnp-paribas-easy-stoxx-europe-600-health-care-ucits-etf-classique-c-fr0007068093
p1314
sVlu0131210360
p1315
g795
sVlu1104115610
p1316
g590
sVlu1022400656
p1317
g450
sVlu0823378905
p1318
g46
sVbe0146934766
p1319
g1028
sVlu0012181318
p1320
g337
sVfr0013217767
p1321
g1172
sVlu1303481904
p1322
Vhttp://www.bnpparibas-ip.fr/investisseur-prive-particulier/fundsheet/actions-internationales/bnp-paribas-l1-usa-classic-c-lu1303481904
p1323
sVfr0012740975
p1324
g346
sVlu1104116345
p1325
g590
sVlu1303480849
p1326
g765
sVfr0013127156
p1327
g269
sVlu0531998010
p1328
g758
sVlu1353195891
p1329
Vhttp://www.bnpparibas-ip.fr/investisseur-prive-particulier/fundsheet/actions-europeennes/theam-quant-equity-europe-climate-care-c-capitalisationlu1353195891
p1330
sVlu0823407266
p1331
g479
sVlu1104116261
p1332
g590
sVlu0087047162
p1333
g758
sVlu1049891796
p1334
g215
sVfr0011314285
p1335
g312
sVfr0010077230
p1336
Vhttp://www.bnpparibas-ip.fr/investisseur-prive-particulier/fundsheet/produits-structures/bnp-paribas-actions-monde-protege-classic-c-fr0010077230
p1337
sVlu0012181664
p1338
g348
sVfr0010155226
p1339
Vhttp://www.bnpparibas-ip.fr/investisseur-prive-particulier/fundsheet/actions-europeennes/camgestion-actions-france-classique-c-fr0010155226
p1340
sVlu1056593855
p1341
g90
sVfr0010712745
p1342
g386
sVlu0823420525
p1343
g972
sVfr0012686046
p1344
g378
sVlu0925122581
p1345
g560
sVlu1291108998
p1346
g298
sVfr0012740983
p1347
g346
sVlu0270761819
p1348
g18
sVlu1080341495
p1349
g496
sVlu0823382840
p1350
g659
sVfr0013176336
p1351
g322
sVlu0823387138
p1352
g243
sVlu0749572268
p1353
Vhttp://www.bnpparibas-ip.fr/investisseur-prive-particulier/fundsheet/obligations-europeennes/bnp-paribas-flexi-i-bond-euro-focus-corporate-classic-c-lu0749572268
p1354
sVlu0823427025
p1355
g182
sVlu1291097340
p1356
g617
sVfr0012892453
p1357
Vhttp://www.bnpparibas-ip.fr/investisseur-prive-particulier/fundsheet/produits-structures/athena-decembre-2023-classic-c-fr0012892453
p1358
sVfr0007031539
p1359
Vhttp://www.bnpparibas-ip.fr/investisseur-prive-particulier/fundsheet/diversifie-monde/multigerants-patrimoine-classique-c-fr0007031539
p1360
sVfr0007048160
p1361
Vhttp://www.bnpparibas-ip.fr/investisseur-prive-particulier/fundsheet/diversifie-monde/selection-equilibre-europe-classic-c-fr0007048160
p1362
sVlu0823430755
p1363
g97
sVlu0823435473
p1364
g956
sVlu0823444111
p1365
g769
sVlu1049884312
p1366
g545
sVfr0010217588
p1367
Vhttp://www.bnpparibas-ip.fr/investisseur-prive-particulier/fundsheet/actions-europeennes/camgestion-euro-mid-cap-classic-c-fr0010217588
p1368
sVfr0011572502
p1369
Vhttp://www.bnpparibas-ip.fr/investisseur-prive-particulier/fundsheet/diversifie-monde/fundquest-patrimoine-classic-c-fr0010986497
p1370
sVlu0251807987
p1371
g266
sVfr0013230216
p1372
g800
sVfr0012649275
p1373
Vhttp://www.bnpparibas-ip.fr/investisseur-prive-particulier/fundsheet/produits-structures/athena-aout-2023-classic-c-fr0012649275
p1374
sVlu0823421846
p1375
g290
sVfr0010250050
p1376
g627
sVlu1120436677
p1377
g343
sVlu0823427611
p1378
g519
sVfr0011693100
p1379
g110
sVfr0011534668
p1380
Vhttp://www.bnpparibas-ip.fr/investisseur-prive-particulier/fundsheet/obligations-europeennes/bnp-paribas-fixed-income-moderate-classic-c-fr0011534668
p1381
sVfr0012739423
p1382
g1175
sVfr0010376822
p1383
Vhttp://www.bnpparibas-ip.fr/investisseur-prive-particulier/fundsheet/diversifie-monde/fundquest-dynamic-classic-c-fr0010376822
p1384
sVfr0010378570
p1385
Vhttp://www.bnpparibas-ip.fr/investisseur-prive-particulier/fundsheet/actions-internationales/bnp-paribas-easy-dj-islamic-market-titans-100-ucits-etf-classique-h-fr0010378570
p1386
sVfr0010018341
p1387
Vhttp://www.bnpparibas-ip.fr/investisseur-prive-particulier/fundsheet/actions-europeennes/bnp-paribas-easy-stoxx-europe-600-construction-materials-ucits-etf-classique-c-fr0010018341
p1388
sVfr0007027990
p1389
Vhttp://www.bnpparibas-ip.fr/investisseur-prive-particulier/fundsheet/obligations-europeennes/natio-fonds-horizon-catholique-classique-c-fr0007027990
p1390
sVlu0925123555
p1391
g85
sVfr0010115410
p1392
g798
sVfr0010713610
p1393
g6
sVlu0154245756
p1394
g560
sVlu0265308576
p1395
g811
sVlu0930018691
p1396
g1093
sVlu0930019749
p1397
g674
sVlu0823434583
p1398
g956
sVlu0111493325
p1399
g223
sVlu0111491469
p1400
g223
sVlu0212196652
p1401
g560
sVlu0132151621
p1402
g940
sVlu0010001013
p1403
g18
sVlu0930020838
p1404
g447
sVlu0347711540
p1405
g255
sVfr0010576769
p1406
g388
sVlu0823411888
p1407
g165
sVlu0823432884
p1408
g152
sVlu0347712274
p1409
g255
sVlu0823413827
p1410
g511
sVfr0007068069
p1411
Vhttp://www.bnpparibas-ip.fr/investisseur-prive-particulier/fundsheet/actions-europeennes/bnp-paribas-easy-stoxx-europe-600-technology-ucits-etf-classique-c-fr0007068069
p1412
sVfr0010125880
p1413
g1117
sVfr0007031588
p1414
Vhttp://www.bnpparibas-ip.fr/investisseur-prive-particulier/fundsheet/diversifie-monde/multigerants-equilibre-classique-c-fr0007031588
p1415
sVlu0282389674
p1416
g549
sVfr0012902278
p1417
g1266
sVlu0131212812
p1418
g795
sVfr0010616177
p1419
g781
sVfr0010130773
p1420
g1061
sVlu0236673397
p1421
g186
sVfr0010146530
p1422
g414
sVlu0950373216
p1423
g360
sVlu0107059080
p1424
g184
sVlu0087045117
p1425
g615
sVlu0265266980
p1426
g253
sVfr0010986497
p1427
g1370
sVlu0325599487
p1428
g8
sVlu0823424279
p1429
g117
sVlu0823379622
p1430
g46
sVlu1235101356
p1431
g423
sVfr0013058021
p1432
Vhttp://www.bnpparibas-ip.fr/investisseur-prive-particulier/fundsheet/actions-emergentes/cardif-countries-convictions-classic-h-fr0013058021
p1433
sVlu0089276934
p1434
g248
sVlu1291104575
p1435
g1158
sVfr0012459386
p1436
g1266
sVfr0010018333
p1437
Vhttp://www.bnpparibas-ip.fr/investisseur-prive-particulier/fundsheet/actions-europeennes/bnp-paribas-easy-stoxx-europe-600-automobiles-parts-ucits-etf-classique-c-fr0010018333
p1438
sVfr0010112094
p1439
g454
sVfr0011314335
p1440
g283
sVfr0010052266
p1441
Vhttp://www.bnpparibas-ip.fr/investisseur-prive-particulier/fundsheet/obligations-convertibles-europeennes/perseis-avantage-convertibles-classic-c-fr0010052266
p1442
sVlu1165137495
p1443
g50
sVfr0011550185
p1444
g484
sVlu1049895862
p1445
g542
sVlu1056591727
p1446
g555
sVfr0007449327
p1447
Vhttp://www.bnpparibas-ip.fr/investisseur-prive-particulier/fundsheet/marche-monetaire-eur/invest-monetaire-2-classic-c-fr0007449327
p1448
sVlu0823414635
p1449
g233
sVlu0283510112
p1450
g184
sVlu0012186622
p1451
g936
sVlu0823413660
p1452
g511
sVlu0823404917
p1453
g296
sVfr0012208742
p1454
Vhttp://www.bnpparibas-ip.fr/investisseur-prive-particulier/fundsheet/produits-structures/c-quadrat-nachhaltigkeit-garant-80-a-eur-c-fr0012208742
p1455
sVlu1165135879
p1456
g917
sVfr0000980120
p1457
Vhttp://www.bnpparibas-ip.fr/investisseur-prive-particulier/fundsheet/actions-europeennes/bnp-paribas-floreal-100-classic-c-fr0000980120
p1458
sVlu0099624925
p1459
g748
sVlu1370930734
p1460
Vhttp://www.bnpparibas-ip.fr/investisseur-prive-particulier/fundsheet/actions-europeennes/bnp-paribas-l1-equity-europe-defi-classic-c-lu1370930734
p1461
sVfr0010077396
p1462
g465
sVlu0360646763
p1463
g1026
sVlu0212178676
p1464
g735
sVlu0823429153
p1465
g620
sVlu0823389936
p1466
g71
sVlu0265291665
p1467
g811
sVfr0012591600
p1468
g988
sVlu0823411706
p1469
g165
sVlu0823412696
p1470
g165
sVlu1377382285
p1471
g333
sVfr0010652743
p1472
Vhttp://www.bnpparibas-ip.fr/investisseur-prive-particulier/fundsheet/obligations-europeennes/camgestion-obligations-europe-classic-c-fr0010652743
p1473
sVlu0823387211
p1474
g243
sVlu0823428429
p1475
g620
sVfr0012169852
p1476
g652
sVlu0823400097
p1477
g206
sVlu0102023610
p1478
g52
sVlu1353195974
p1479
g1330
sVlu0081706904
p1480
g571
sVfr0013049426
p1481
Vhttp://www.bnpparibas-ip.fr/investisseur-prive-particulier/fundsheet/diversifie-monde/bnp-paribas-retraite-responsable-2034-2036-p-c-fr0013049426
p1482
sVlu0043962355
p1483
g38
sVfr0012892461
p1484
Vhttp://www.bnpparibas-ip.fr/investisseur-prive-particulier/fundsheet/produits-structures/athena-semi-airbag-decembre-2023-classic-c-fr0012892461
p1485
sVlu0107087297
p1486
g748
sVlu0212180490
p1487
g735
sVfr0010028902
p1488
g1006
sVfr0007496047
p1489
Vhttp://www.bnpparibas-ip.fr/investisseur-prive-particulier/fundsheet/marche-monetaire-eur/bnp-paribas-cash-invest-classic-c-fr0007496047
p1490
sVlu0823407423
p1491
g479
sVlu0823417810
p1492
g146
sVlu0132152439
p1493
g167
sVlu1120436321
p1494
g343
sVlu0823403356
p1495
g294
sVlu0823381446
p1496
g467
sVlu1353185314
p1497
g864
sVlu0265268762
p1498
g163
sVfr0012688430
p1499
g1098
sVfr0010174425
p1500
Vhttp://www.bnpparibas-ip.fr/investisseur-prive-particulier/fundsheet/obligations-europeennes/bnp-paribas-1-an-protection-99-classic-c-fr0010174425
p1501
sVlu0823388615
p1502
g174
sVlu1150259296
p1503
g412
sVfr0011742527
p1504
g1064
sVlu1080341818
p1505
g496
sVfr0011079524
p1506
Vhttp://www.bnpparibas-ip.fr/investisseur-prive-particulier/fundsheet/produits-structures/bnp-paribas-gestion-active-2-classic-c-fr0011079524
p1507
sVlu1104108243
p1508
g56
sVfr0011142074
p1509
Vhttp://www.bnpparibas-ip.fr/investisseur-prive-particulier/fundsheet/produits-structures/bnp-paribas-gestion-active-3-classic-c-fr0011142074
p1510
sVlu0823424782
p1511
g431
sVlu0823438220
p1512
g42
sVlu0749572425
p1513
g1354
sVfr0013073780
p1514
Vhttp://www.bnpparibas-ip.fr/investisseur-prive-particulier/fundsheet/produits-structures/croissance-europe-2022-classic-c-fr0013073780
p1515
sVfr0010912873
p1516
g10
sVlu0531552510
p1517
g442
sVlu0823408744
p1518
g250
s.